Archive member included because of file (symbol)

c:/devkitPro2007/libnds/lib\libfat.a(libfat.o)
                              ./fs.o (fatInitDefault)
c:/devkitPro2007/libnds/lib\libfat.a(partition.o)
                              c:/devkitPro2007/libnds/lib\libfat.a(libfat.o) (_FAT_partition_setDefaultInterface)
c:/devkitPro2007/libnds/lib\libfat.a(disc.o)
                              c:/devkitPro2007/libnds/lib\libfat.a(partition.o) (_FAT_disc_gbaSlotFindInterface)
c:/devkitPro2007/libnds/lib\libfat.a(io_m3cf.o)
                              c:/devkitPro2007/libnds/lib\libfat.a(disc.o) (_io_m3cf)
c:/devkitPro2007/libnds/lib\libfat.a(io_m3sd.o)
                              c:/devkitPro2007/libnds/lib\libfat.a(disc.o) (_io_m3sd)
c:/devkitPro2007/libnds/lib\libfat.a(io_mpcf.o)
                              c:/devkitPro2007/libnds/lib\libfat.a(disc.o) (_io_mpcf)
c:/devkitPro2007/libnds/lib\libfat.a(io_njsd.o)
                              c:/devkitPro2007/libnds/lib\libfat.a(disc.o) (_io_njsd)
c:/devkitPro2007/libnds/lib\libfat.a(io_nmmc.o)
                              c:/devkitPro2007/libnds/lib\libfat.a(disc.o) (_io_nmmc)
c:/devkitPro2007/libnds/lib\libfat.a(io_sccf.o)
                              c:/devkitPro2007/libnds/lib\libfat.a(disc.o) (_io_sccf)
c:/devkitPro2007/libnds/lib\libfat.a(io_scsd.o)
                              c:/devkitPro2007/libnds/lib\libfat.a(disc.o) (_io_scsd)
c:/devkitPro2007/libnds/lib\libfat.a(io_sd_common.o)
                              c:/devkitPro2007/libnds/lib\libfat.a(io_scsd.o) (_SD_CRC7)
c:/devkitPro2007/libnds/lib\libfat.a(io_dldi.o)
                              c:/devkitPro2007/libnds/lib\libfat.a(disc.o) (_io_dldi)
c:/devkitPro2007/libnds/lib\libfat.a(io_scsd_s.o)
                              c:/devkitPro2007/libnds/lib\libfat.a(io_scsd.o) (_SCSD_writeData_s)
c:/devkitPro2007/libnds/lib\libfat.a(cache.o)
                              c:/devkitPro2007/libnds/lib\libfat.a(partition.o) (_FAT_cache_invalidate)
c:/devkitPro2007/libnds/lib\libfat.a(fatdir.o)
                              c:/devkitPro2007/libnds/lib\libfat.a(libfat.o) (_FAT_link_r)
c:/devkitPro2007/libnds/lib\libfat.a(fatfile.o)
                              c:/devkitPro2007/libnds/lib\libfat.a(libfat.o) (_FAT_fstat_r)
c:/devkitPro2007/libnds/lib\libfat.a(file_allocation_table.o)
                              c:/devkitPro2007/libnds/lib\libfat.a(fatfile.o) (_FAT_fat_nextCluster)
c:/devkitPro2007/libnds/lib\libfat.a(filetime.o)
                              c:/devkitPro2007/libnds/lib\libfat.a(fatdir.o) (_FAT_filetime_getTimeFromRTC)
c:/devkitPro2007/libnds/lib\libfat.a(io_cf_common.o)
                              c:/devkitPro2007/libnds/lib\libfat.a(io_m3cf.o) (_CF_isInserted)
c:/devkitPro2007/libnds/lib\libfat.a(io_m3_common.o)
                              c:/devkitPro2007/libnds/lib\libfat.a(io_m3cf.o) (_M3_changeMode)
c:/devkitPro2007/libnds/lib\libfat.a(io_sc_common.o)
                              c:/devkitPro2007/libnds/lib\libfat.a(io_sccf.o) (_SC_changeMode)
c:/devkitPro2007/libnds/lib\libfat.a(directory.o)
                              c:/devkitPro2007/libnds/lib\libfat.a(fatdir.o) (_FAT_directory_entryGetCluster)
c:/devkitPro2007/libnds/lib\libnds9.a(console.o)
                              ./gui.o (consoleClear)
c:/devkitPro2007/libnds/lib\libnds9.a(initSystem.o)
                              c:/devkitpro2007/devkitarm/bin/../lib/gcc/arm-eabi/4.1.2/../../../../arm-eabi/lib/ds_arm9_crt0.o (initSystem)
c:/devkitPro2007/libnds/lib\libnds9.a(keys.o)
                              ./main.o (keysHeld)
c:/devkitPro2007/libnds/lib\libnds9.a(video.o)
                              ./main.o (vramSetBankA)
c:/devkitPro2007/libnds/lib\libnds9.a(card.o)
                              c:/devkitPro2007/libnds/lib\libfat.a(io_nmmc.o) (cardWriteCommand)
c:/devkitPro2007/libnds/lib\libnds9.a(interrupts.o)
                              c:/devkitPro2007/libnds/lib\libfat.a(io_njsd.o) (irqDisable)
c:/devkitPro2007/libnds/lib\libnds9.a(biosCalls.o)
                              ./main.o (swiWaitForVBlank)
c:/devkitPro2007/libnds/lib\libnds9.a(interruptDispatcher.o)
                              c:/devkitPro2007/libnds/lib\libnds9.a(interrupts.o) (IntrMain)
c:/devkitPro2007/libnds/lib\libnds9.a(default_font.o)
                              c:/devkitPro2007/libnds/lib\libnds9.a(console.o) (default_font_bin)
c:/devkitpro2007/devkitarm/bin/../lib/gcc/arm-eabi/4.1.2\libgcc.a(_udivsi3.o)
                              c:/devkitPro2007/libnds/lib\libfat.a(partition.o) (__aeabi_uidiv)
c:/devkitpro2007/devkitarm/bin/../lib/gcc/arm-eabi/4.1.2\libgcc.a(_divsi3.o)
                              ./core.o (__aeabi_idiv)
c:/devkitpro2007/devkitarm/bin/../lib/gcc/arm-eabi/4.1.2\libgcc.a(_dvmd_tls.o)
                              c:/devkitpro2007/devkitarm/bin/../lib/gcc/arm-eabi/4.1.2\libgcc.a(_udivsi3.o) (__div0)
c:/devkitpro2007/devkitarm/bin/../lib/gcc/arm-eabi/4.1.2/../../../../arm-eabi/lib\libc.a(lib_a-ctype_.o)
                              c:/devkitPro2007/libnds/lib\libfat.a(partition.o) (__ctype_ptr)
c:/devkitpro2007/devkitarm/bin/../lib/gcc/arm-eabi/4.1.2/../../../../arm-eabi/lib\libc.a(lib_a-fclose.o)
                              ./engine.o (fclose)
c:/devkitpro2007/devkitarm/bin/../lib/gcc/arm-eabi/4.1.2/../../../../arm-eabi/lib\libc.a(lib_a-fflush.o)
                              c:/devkitpro2007/devkitarm/bin/../lib/gcc/arm-eabi/4.1.2/../../../../arm-eabi/lib\libc.a(lib_a-fclose.o) (fflush)
c:/devkitpro2007/devkitarm/bin/../lib/gcc/arm-eabi/4.1.2/../../../../arm-eabi/lib\libc.a(lib_a-findfp.o)
                              c:/devkitpro2007/devkitarm/bin/../lib/gcc/arm-eabi/4.1.2/../../../../arm-eabi/lib\libc.a(lib_a-fclose.o) (__sfp_lock_acquire)
c:/devkitpro2007/devkitarm/bin/../lib/gcc/arm-eabi/4.1.2/../../../../arm-eabi/lib\libc.a(lib_a-fopen.o)
                              ./engine.o (fopen)
c:/devkitpro2007/devkitarm/bin/../lib/gcc/arm-eabi/4.1.2/../../../../arm-eabi/lib\libc.a(lib_a-fread.o)
                              ./fs.o (fread)
c:/devkitpro2007/devkitarm/bin/../lib/gcc/arm-eabi/4.1.2/../../../../arm-eabi/lib\libc.a(lib_a-freer.o)
                              c:/devkitpro2007/devkitarm/bin/../lib/gcc/arm-eabi/4.1.2/../../../../arm-eabi/lib\libc.a(lib_a-fclose.o) (_free_r)
c:/devkitpro2007/devkitarm/bin/../lib/gcc/arm-eabi/4.1.2/../../../../arm-eabi/lib\libc.a(lib_a-fseek.o)
                              c:/devkitpro2007/devkitarm/bin/../lib/gcc/arm-eabi/4.1.2/../../../../arm-eabi/lib\libc.a(lib_a-fopen.o) (_fseek_r)
c:/devkitpro2007/devkitarm/bin/../lib/gcc/arm-eabi/4.1.2/../../../../arm-eabi/lib\libc.a(lib_a-fwalk.o)
                              c:/devkitpro2007/devkitarm/bin/../lib/gcc/arm-eabi/4.1.2/../../../../arm-eabi/lib\libc.a(lib_a-fflush.o) (_fwalk)
c:/devkitpro2007/devkitarm/bin/../lib/gcc/arm-eabi/4.1.2/../../../../arm-eabi/lib\libc.a(lib_a-fwrite.o)
                              ./core.o (fwrite)
c:/devkitpro2007/devkitarm/bin/../lib/gcc/arm-eabi/4.1.2/../../../../arm-eabi/lib\libc.a(lib_a-impure.o)
                              c:/devkitPro2007/libnds/lib\libnds9.a(console.o) (_impure_ptr)
c:/devkitpro2007/devkitarm/bin/../lib/gcc/arm-eabi/4.1.2/../../../../arm-eabi/lib\libc.a(lib_a-init.o)
                              c:/devkitpro2007/devkitarm/bin/../lib/gcc/arm-eabi/4.1.2/../../../../arm-eabi/lib/ds_arm9_crt0.o (__libc_init_array)
c:/devkitpro2007/devkitarm/bin/../lib/gcc/arm-eabi/4.1.2/../../../../arm-eabi/lib\libc.a(lib_a-iprintf.o)
                              ./engine.o (iprintf)
c:/devkitpro2007/devkitarm/bin/../lib/gcc/arm-eabi/4.1.2/../../../../arm-eabi/lib\libc.a(lib_a-makebuf.o)
                              c:/devkitpro2007/devkitarm/bin/../lib/gcc/arm-eabi/4.1.2/../../../../arm-eabi/lib\libc.a(lib_a-fseek.o) (__smakebuf)
c:/devkitpro2007/devkitarm/bin/../lib/gcc/arm-eabi/4.1.2/../../../../arm-eabi/lib\libc.a(lib_a-malloc.o)
                              ./engine.o (free)
c:/devkitpro2007/devkitarm/bin/../lib/gcc/arm-eabi/4.1.2/../../../../arm-eabi/lib\libc.a(lib_a-mallocr.o)
                              c:/devkitpro2007/devkitarm/bin/../lib/gcc/arm-eabi/4.1.2/../../../../arm-eabi/lib\libc.a(lib_a-findfp.o) (_malloc_r)
c:/devkitpro2007/devkitarm/bin/../lib/gcc/arm-eabi/4.1.2/../../../../arm-eabi/lib\libc.a(lib_a-memcpy.o)
                              ./apu.o (memcpy)
c:/devkitpro2007/devkitarm/bin/../lib/gcc/arm-eabi/4.1.2/../../../../arm-eabi/lib\libc.a(lib_a-memmove.o)
                              ./snes.o (memmove)
c:/devkitpro2007/devkitarm/bin/../lib/gcc/arm-eabi/4.1.2/../../../../arm-eabi/lib\libc.a(lib_a-memset.o)
                              ./engine.o (memset)
c:/devkitpro2007/devkitarm/bin/../lib/gcc/arm-eabi/4.1.2/../../../../arm-eabi/lib\libc.a(lib_a-mlock.o)
                              c:/devkitpro2007/devkitarm/bin/../lib/gcc/arm-eabi/4.1.2/../../../../arm-eabi/lib\libc.a(lib_a-freer.o) (__malloc_lock)
c:/devkitpro2007/devkitarm/bin/../lib/gcc/arm-eabi/4.1.2/../../../../arm-eabi/lib\libc.a(lib_a-printf.o)
                              ./gui.o (printf)
c:/devkitpro2007/devkitarm/bin/../lib/gcc/arm-eabi/4.1.2/../../../../arm-eabi/lib\libc.a(lib_a-refill.o)
                              c:/devkitpro2007/devkitarm/bin/../lib/gcc/arm-eabi/4.1.2/../../../../arm-eabi/lib\libc.a(lib_a-fread.o) (__srefill_r)
c:/devkitpro2007/devkitarm/bin/../lib/gcc/arm-eabi/4.1.2/../../../../arm-eabi/lib\libc.a(lib_a-setvbuf.o)
                              c:/devkitPro2007/libnds/lib\libnds9.a(console.o) (setvbuf)
c:/devkitpro2007/devkitarm/bin/../lib/gcc/arm-eabi/4.1.2/../../../../arm-eabi/lib\libc.a(lib_a-siscanf.o)
                              c:/devkitPro2007/libnds/lib\libnds9.a(console.o) (siscanf)
c:/devkitpro2007/devkitarm/bin/../lib/gcc/arm-eabi/4.1.2/../../../../arm-eabi/lib\libc.a(lib_a-sprintf.o)
                              ./engine.o (sprintf)
c:/devkitpro2007/devkitarm/bin/../lib/gcc/arm-eabi/4.1.2/../../../../arm-eabi/lib\libc.a(lib_a-stdio.o)
                              c:/devkitpro2007/devkitarm/bin/../lib/gcc/arm-eabi/4.1.2/../../../../arm-eabi/lib\libc.a(lib_a-findfp.o) (__sclose)
c:/devkitpro2007/devkitarm/bin/../lib/gcc/arm-eabi/4.1.2/../../../../arm-eabi/lib\libc.a(lib_a-strcasecmp.o)
                              c:/devkitPro2007/libnds/lib\libfat.a(directory.o) (strcasecmp)
c:/devkitpro2007/devkitarm/bin/../lib/gcc/arm-eabi/4.1.2/../../../../arm-eabi/lib\libc.a(lib_a-strcat.o)
                              ./fs.o (strcat)
c:/devkitpro2007/devkitarm/bin/../lib/gcc/arm-eabi/4.1.2/../../../../arm-eabi/lib\libc.a(lib_a-strchr.o)
                              ./fs.o (strchr)
c:/devkitpro2007/devkitarm/bin/../lib/gcc/arm-eabi/4.1.2/../../../../arm-eabi/lib\libc.a(lib_a-strcmp.o)
                              ./fs.o (strcmp)
c:/devkitpro2007/devkitarm/bin/../lib/gcc/arm-eabi/4.1.2/../../../../arm-eabi/lib\libc.a(lib_a-strcpy.o)
                              ./engine.o (strcpy)
c:/devkitpro2007/devkitarm/bin/../lib/gcc/arm-eabi/4.1.2/../../../../arm-eabi/lib\libc.a(lib_a-strlen.o)
                              ./fs.o (strlen)
c:/devkitpro2007/devkitarm/bin/../lib/gcc/arm-eabi/4.1.2/../../../../arm-eabi/lib\libc.a(lib_a-strncasecmp.o)
                              c:/devkitPro2007/libnds/lib\libfat.a(directory.o) (strncasecmp)
c:/devkitpro2007/devkitarm/bin/../lib/gcc/arm-eabi/4.1.2/../../../../arm-eabi/lib\libc.a(lib_a-strncmp.o)
                              c:/devkitPro2007/libnds/lib\libfat.a(partition.o) (strncmp)
c:/devkitpro2007/devkitarm/bin/../lib/gcc/arm-eabi/4.1.2/../../../../arm-eabi/lib\libc.a(lib_a-strncpy.o)
                              ./fs.o (strncpy)
c:/devkitpro2007/devkitarm/bin/../lib/gcc/arm-eabi/4.1.2/../../../../arm-eabi/lib\libc.a(lib_a-strnlen.o)
                              c:/devkitPro2007/libnds/lib\libfat.a(directory.o) (strnlen)
c:/devkitpro2007/devkitarm/bin/../lib/gcc/arm-eabi/4.1.2/../../../../arm-eabi/lib\libc.a(lib_a-strpbrk.o)
                              c:/devkitPro2007/libnds/lib\libfat.a(directory.o) (strpbrk)
c:/devkitpro2007/devkitarm/bin/../lib/gcc/arm-eabi/4.1.2/../../../../arm-eabi/lib\libc.a(lib_a-strrchr.o)
                              ./engine.o (strrchr)
c:/devkitpro2007/devkitarm/bin/../lib/gcc/arm-eabi/4.1.2/../../../../arm-eabi/lib\libc.a(lib_a-strstr.o)
                              ./fs.o (strstr)
c:/devkitpro2007/devkitarm/bin/../lib/gcc/arm-eabi/4.1.2/../../../../arm-eabi/lib\libc.a(lib_a-strupr.o)
                              c:/devkitPro2007/libnds/lib\libfat.a(directory.o) (strupr)
c:/devkitpro2007/devkitarm/bin/../lib/gcc/arm-eabi/4.1.2/../../../../arm-eabi/lib\libc.a(lib_a-sysstat.o)
                              ./fs.o (stat)
c:/devkitpro2007/devkitarm/bin/../lib/gcc/arm-eabi/4.1.2/../../../../arm-eabi/lib\libc.a(lib_a-toupper.o)
                              ./fs.o (toupper)
c:/devkitpro2007/devkitarm/bin/../lib/gcc/arm-eabi/4.1.2/../../../../arm-eabi/lib\libc.a(lib_a-vfiprintf.o)
                              c:/devkitpro2007/devkitarm/bin/../lib/gcc/arm-eabi/4.1.2/../../../../arm-eabi/lib\libc.a(lib_a-iprintf.o) (_vfiprintf_r)
c:/devkitpro2007/devkitarm/bin/../lib/gcc/arm-eabi/4.1.2/../../../../arm-eabi/lib\libc.a(lib_a-vfiscanf.o)
                              c:/devkitpro2007/devkitarm/bin/../lib/gcc/arm-eabi/4.1.2/../../../../arm-eabi/lib\libc.a(lib_a-siscanf.o) (__svfiscanf_r)
c:/devkitpro2007/devkitarm/bin/../lib/gcc/arm-eabi/4.1.2/../../../../arm-eabi/lib\libc.a(lib_a-vfprintf.o)
                              c:/devkitpro2007/devkitarm/bin/../lib/gcc/arm-eabi/4.1.2/../../../../arm-eabi/lib\libc.a(lib_a-printf.o) (_vfprintf_r)
c:/devkitpro2007/devkitarm/bin/../lib/gcc/arm-eabi/4.1.2/../../../../arm-eabi/lib\libc.a(lib_a-vsnprintf.o)
                              ./fs.o (vsnprintf)
c:/devkitpro2007/devkitarm/bin/../lib/gcc/arm-eabi/4.1.2/../../../../arm-eabi/lib\libc.a(lib_a-wcrtomb.o)
                              c:/devkitpro2007/devkitarm/bin/../lib/gcc/arm-eabi/4.1.2/../../../../arm-eabi/lib\libc.a(lib_a-vfiprintf.o) (_wcrtomb_r)
c:/devkitpro2007/devkitarm/bin/../lib/gcc/arm-eabi/4.1.2/../../../../arm-eabi/lib\libc.a(lib_a-wcsrtombs.o)
                              c:/devkitpro2007/devkitarm/bin/../lib/gcc/arm-eabi/4.1.2/../../../../arm-eabi/lib\libc.a(lib_a-vfiprintf.o) (_wcsrtombs_r)
c:/devkitpro2007/devkitarm/bin/../lib/gcc/arm-eabi/4.1.2/../../../../arm-eabi/lib\libc.a(lib_a-wctomb_r.o)
                              c:/devkitpro2007/devkitarm/bin/../lib/gcc/arm-eabi/4.1.2/../../../../arm-eabi/lib\libc.a(lib_a-wcrtomb.o) (_wctomb_r)
c:/devkitpro2007/devkitarm/bin/../lib/gcc/arm-eabi/4.1.2/../../../../arm-eabi/lib\libc.a(lib_a-wsetup.o)
                              c:/devkitpro2007/devkitarm/bin/../lib/gcc/arm-eabi/4.1.2/../../../../arm-eabi/lib\libc.a(lib_a-vfiprintf.o) (__swsetup)
c:/devkitpro2007/devkitarm/bin/../lib/gcc/arm-eabi/4.1.2/../../../../arm-eabi/lib\libc.a(lib_a-dtoa.o)
                              c:/devkitpro2007/devkitarm/bin/../lib/gcc/arm-eabi/4.1.2/../../../../arm-eabi/lib\libc.a(lib_a-vfprintf.o) (_dtoa_r)
c:/devkitpro2007/devkitarm/bin/../lib/gcc/arm-eabi/4.1.2/../../../../arm-eabi/lib\libc.a(lib_a-flags.o)
                              c:/devkitpro2007/devkitarm/bin/../lib/gcc/arm-eabi/4.1.2/../../../../arm-eabi/lib\libc.a(lib_a-fopen.o) (__sflags)
c:/devkitpro2007/devkitarm/bin/../lib/gcc/arm-eabi/4.1.2/../../../../arm-eabi/lib\libc.a(lib_a-fvwrite.o)
                              c:/devkitpro2007/devkitarm/bin/../lib/gcc/arm-eabi/4.1.2/../../../../arm-eabi/lib\libc.a(lib_a-fwrite.o) (__sfvwrite_r)
c:/devkitpro2007/devkitarm/bin/../lib/gcc/arm-eabi/4.1.2/../../../../arm-eabi/lib\libc.a(lib_a-iswspace.o)
                              c:/devkitpro2007/devkitarm/bin/../lib/gcc/arm-eabi/4.1.2/../../../../arm-eabi/lib\libc.a(lib_a-vfiscanf.o) (iswspace)
c:/devkitpro2007/devkitarm/bin/../lib/gcc/arm-eabi/4.1.2/../../../../arm-eabi/lib\libc.a(lib_a-locale.o)
                              c:/devkitpro2007/devkitarm/bin/../lib/gcc/arm-eabi/4.1.2/../../../../arm-eabi/lib\libc.a(lib_a-vfprintf.o) (localeconv)
c:/devkitpro2007/devkitarm/bin/../lib/gcc/arm-eabi/4.1.2/../../../../arm-eabi/lib\libc.a(lib_a-mbrtowc.o)
                              c:/devkitpro2007/devkitarm/bin/../lib/gcc/arm-eabi/4.1.2/../../../../arm-eabi/lib\libc.a(lib_a-vfiscanf.o) (_mbrtowc_r)
c:/devkitpro2007/devkitarm/bin/../lib/gcc/arm-eabi/4.1.2/../../../../arm-eabi/lib\libc.a(lib_a-mbtowc_r.o)
                              c:/devkitpro2007/devkitarm/bin/../lib/gcc/arm-eabi/4.1.2/../../../../arm-eabi/lib\libc.a(lib_a-mbrtowc.o) (_mbtowc_r)
c:/devkitpro2007/devkitarm/bin/../lib/gcc/arm-eabi/4.1.2/../../../../arm-eabi/lib\libc.a(lib_a-memchr.o)
                              c:/devkitpro2007/devkitarm/bin/../lib/gcc/arm-eabi/4.1.2/../../../../arm-eabi/lib\libc.a(lib_a-vfiprintf.o) (memchr)
c:/devkitpro2007/devkitarm/bin/../lib/gcc/arm-eabi/4.1.2/../../../../arm-eabi/lib\libc.a(lib_a-mprec.o)
                              c:/devkitpro2007/devkitarm/bin/../lib/gcc/arm-eabi/4.1.2/../../../../arm-eabi/lib\libc.a(lib_a-dtoa.o) (_Bfree)
c:/devkitpro2007/devkitarm/bin/../lib/gcc/arm-eabi/4.1.2/../../../../arm-eabi/lib\libc.a(lib_a-reallocr.o)
                              c:/devkitpro2007/devkitarm/bin/../lib/gcc/arm-eabi/4.1.2/../../../../arm-eabi/lib\libc.a(lib_a-fvwrite.o) (_realloc_r)
c:/devkitpro2007/devkitarm/bin/../lib/gcc/arm-eabi/4.1.2/../../../../arm-eabi/lib\libc.a(lib_a-s_isinfd.o)
                              c:/devkitpro2007/devkitarm/bin/../lib/gcc/arm-eabi/4.1.2/../../../../arm-eabi/lib\libc.a(lib_a-vfprintf.o) (__isinfd)
c:/devkitpro2007/devkitarm/bin/../lib/gcc/arm-eabi/4.1.2/../../../../arm-eabi/lib\libc.a(lib_a-s_isnand.o)
                              c:/devkitpro2007/devkitarm/bin/../lib/gcc/arm-eabi/4.1.2/../../../../arm-eabi/lib\libc.a(lib_a-vfprintf.o) (__isnand)
c:/devkitpro2007/devkitarm/bin/../lib/gcc/arm-eabi/4.1.2/../../../../arm-eabi/lib\libc.a(lib_a-sccl.o)
                              c:/devkitpro2007/devkitarm/bin/../lib/gcc/arm-eabi/4.1.2/../../../../arm-eabi/lib\libc.a(lib_a-vfiscanf.o) (__sccl)
c:/devkitpro2007/devkitarm/bin/../lib/gcc/arm-eabi/4.1.2/../../../../arm-eabi/lib\libc.a(lib_a-strtol.o)
                              c:/devkitpro2007/devkitarm/bin/../lib/gcc/arm-eabi/4.1.2/../../../../arm-eabi/lib\libc.a(lib_a-vfiscanf.o) (_strtol_r)
c:/devkitpro2007/devkitarm/bin/../lib/gcc/arm-eabi/4.1.2/../../../../arm-eabi/lib\libc.a(lib_a-strtoul.o)
                              c:/devkitpro2007/devkitarm/bin/../lib/gcc/arm-eabi/4.1.2/../../../../arm-eabi/lib\libc.a(lib_a-vfiscanf.o) (_strtoul_r)
c:/devkitpro2007/devkitarm/bin/../lib/gcc/arm-eabi/4.1.2/../../../../arm-eabi/lib\libc.a(lib_a-ungetc.o)
                              c:/devkitpro2007/devkitarm/bin/../lib/gcc/arm-eabi/4.1.2/../../../../arm-eabi/lib\libc.a(lib_a-vfiscanf.o) (ungetc)
c:/devkitpro2007/devkitarm/bin/../lib/gcc/arm-eabi/4.1.2/../../../../arm-eabi/lib\libc.a(lib_a-callocr.o)
                              c:/devkitpro2007/devkitarm/bin/../lib/gcc/arm-eabi/4.1.2/../../../../arm-eabi/lib\libc.a(lib_a-mprec.o) (_calloc_r)
c:/devkitpro2007/devkitarm/bin/../lib/gcc/arm-eabi/4.1.2\libgcc.a(_addsubdf3.o)
                              c:/devkitpro2007/devkitarm/bin/../lib/gcc/arm-eabi/4.1.2/../../../../arm-eabi/lib\libc.a(lib_a-dtoa.o) (__aeabi_dsub)
c:/devkitpro2007/devkitarm/bin/../lib/gcc/arm-eabi/4.1.2\libgcc.a(_muldivdf3.o)
                              c:/devkitpro2007/devkitarm/bin/../lib/gcc/arm-eabi/4.1.2/../../../../arm-eabi/lib\libc.a(lib_a-dtoa.o) (__aeabi_dmul)
c:/devkitpro2007/devkitarm/bin/../lib/gcc/arm-eabi/4.1.2\libgcc.a(_cmpdf2.o)
                              c:/devkitpro2007/devkitarm/bin/../lib/gcc/arm-eabi/4.1.2/../../../../arm-eabi/lib\libc.a(lib_a-vfprintf.o) (__aeabi_dcmpeq)
c:/devkitpro2007/devkitarm/bin/../lib/gcc/arm-eabi/4.1.2\libgcc.a(_fixdfsi.o)
                              c:/devkitpro2007/devkitarm/bin/../lib/gcc/arm-eabi/4.1.2/../../../../arm-eabi/lib\libc.a(lib_a-dtoa.o) (__aeabi_d2iz)
c:/devkitpro2007/devkitarm/bin/../lib/gcc/arm-eabi/4.1.2/../../../../arm-eabi/lib\libsysbase.a(iosupport.o)
                              c:/devkitPro2007/libnds/lib\libfat.a(libfat.o) (AddDevice)
c:/devkitpro2007/devkitarm/bin/../lib/gcc/arm-eabi/4.1.2/../../../../arm-eabi/lib\libsysbase.a(close.o)
                              c:/devkitpro2007/devkitarm/bin/../lib/gcc/arm-eabi/4.1.2/../../../../arm-eabi/lib\libc.a(lib_a-stdio.o) (_close_r)
c:/devkitpro2007/devkitarm/bin/../lib/gcc/arm-eabi/4.1.2/../../../../arm-eabi/lib\libsysbase.a(fstat.o)
                              c:/devkitpro2007/devkitarm/bin/../lib/gcc/arm-eabi/4.1.2/../../../../arm-eabi/lib\libc.a(lib_a-fseek.o) (_fstat_r)
c:/devkitpro2007/devkitarm/bin/../lib/gcc/arm-eabi/4.1.2/../../../../arm-eabi/lib\libsysbase.a(isatty.o)
                              c:/devkitpro2007/devkitarm/bin/../lib/gcc/arm-eabi/4.1.2/../../../../arm-eabi/lib\libc.a(lib_a-makebuf.o) (isatty)
c:/devkitpro2007/devkitarm/bin/../lib/gcc/arm-eabi/4.1.2/../../../../arm-eabi/lib\libsysbase.a(lseek.o)
                              c:/devkitpro2007/devkitarm/bin/../lib/gcc/arm-eabi/4.1.2/../../../../arm-eabi/lib\libc.a(lib_a-stdio.o) (_lseek_r)
c:/devkitpro2007/devkitarm/bin/../lib/gcc/arm-eabi/4.1.2/../../../../arm-eabi/lib\libsysbase.a(open.o)
                              c:/devkitpro2007/devkitarm/bin/../lib/gcc/arm-eabi/4.1.2/../../../../arm-eabi/lib\libc.a(lib_a-fopen.o) (_open_r)
c:/devkitpro2007/devkitarm/bin/../lib/gcc/arm-eabi/4.1.2/../../../../arm-eabi/lib\libsysbase.a(read.o)
                              c:/devkitpro2007/devkitarm/bin/../lib/gcc/arm-eabi/4.1.2/../../../../arm-eabi/lib\libc.a(lib_a-stdio.o) (_read_r)
c:/devkitpro2007/devkitarm/bin/../lib/gcc/arm-eabi/4.1.2/../../../../arm-eabi/lib\libsysbase.a(sbrk.o)
                              c:/devkitpro2007/devkitarm/bin/../lib/gcc/arm-eabi/4.1.2/../../../../arm-eabi/lib\libc.a(lib_a-freer.o) (_sbrk_r)
c:/devkitpro2007/devkitarm/bin/../lib/gcc/arm-eabi/4.1.2/../../../../arm-eabi/lib\libsysbase.a(stat.o)
                              c:/devkitpro2007/devkitarm/bin/../lib/gcc/arm-eabi/4.1.2/../../../../arm-eabi/lib\libc.a(lib_a-sysstat.o) (_stat_r)
c:/devkitpro2007/devkitarm/bin/../lib/gcc/arm-eabi/4.1.2/../../../../arm-eabi/lib\libsysbase.a(times.o)
                              c:/devkitPro2007/libnds/lib\libnds9.a(initSystem.o) (punixTime)
c:/devkitpro2007/devkitarm/bin/../lib/gcc/arm-eabi/4.1.2/../../../../arm-eabi/lib\libsysbase.a(write.o)
                              c:/devkitpro2007/devkitarm/bin/../lib/gcc/arm-eabi/4.1.2/../../../../arm-eabi/lib\libc.a(lib_a-stdio.o) (_write_r)
c:/devkitpro2007/devkitarm/bin/../lib/gcc/arm-eabi/4.1.2/../../../../arm-eabi/lib\libsysbase.a(malloc_vars.o)
                              c:/devkitpro2007/devkitarm/bin/../lib/gcc/arm-eabi/4.1.2/../../../../arm-eabi/lib/ds_arm9_crt0.o (fake_heap_end)
c:/devkitpro2007/devkitarm/bin/../lib/gcc/arm-eabi/4.1.2/../../../../arm-eabi/lib\libsysbase.a(chdir.o)
                              ./fs.o (chdir)
c:/devkitpro2007/devkitarm/bin/../lib/gcc/arm-eabi/4.1.2/../../../../arm-eabi/lib\libsysbase.a(dir.o)
                              ./fs.o (dirreset)
c:/devkitpro2007/devkitarm/bin/../lib/gcc/arm-eabi/4.1.2/../../../../arm-eabi/lib\libsysbase.a(build_argv.o)
                              c:/devkitpro2007/devkitarm/bin/../lib/gcc/arm-eabi/4.1.2/../../../../arm-eabi/lib/ds_arm9_crt0.o (build_argv)
c:/devkitpro2007/devkitarm/bin/../lib/gcc/arm-eabi/4.1.2/../../../../arm-eabi/lib\libc.a(lib_a-errno.o)
                              c:/devkitpro2007/devkitarm/bin/../lib/gcc/arm-eabi/4.1.2/../../../../arm-eabi/lib\libsysbase.a(times.o) (__errno)

Allocating common symbols
Common symbol       size              file

SPC_list            0x4               ./main.o
screen_mode         0x4               ./main.o
bittab8             0x40              ./ppu.o
interrupted         0x1               ./engine.o
CFG                 0x188             ./SNES_global.o
old_brightness      0x1               ./ppu.o
o                   0x4               ./ppu.o
sprite_tiles_def    0x400             ./ppu.o
GFX                 0x8e4             ./SNES_global.o
tiles_def           0x1000            ./ppu.o
v_blank             0x4               ./main.o
addrbuf             0x61ae4           ./engine.o
SPC700_emu          0x4               ./core.o
optionsMenu         0x4               ./main.o
GUI                 0x4               ./gui.o
logbuf              0x7d00            ./fs.o
SNES                0xc494            ./SNES_global.o
mainMenu            0x4               ./main.o
ROM_list            0x4               ./main.o
punixTime           0x4               c:/devkitpro2007/devkitarm/bin/../lib/gcc/arm-eabi/4.1.2/../../../../arm-eabi/lib\libsysbase.a(times.o)
brightness          0x1               ./ppu.o
APU                 0x14              ./SNES_global.o
keys                0x4               ./main.o
ROM                 0x4               ./main.o
OldPC               0x4               ./engine.o

Memory Configuration

Name             Origin             Length             Attributes
rom              0x08000000         0x02000000
ewram            0x02000000         0x003ff000
dtcm             0x0b000000         0x00004000
itcm             0x01000000         0x00008000
*default*        0x00000000         0xffffffff

Linker script and memory map

                0x01000000                __itcm_start = 0x1000000
                0x023ff000                __ewram_end = 0x23ff000
                0x023ff000                __eheap_end = 0x23ff000
                0x0b000000                __dtcm_start = 0xb000000
                0x0b004000                __dtcm_top = 0xb004000
                0x0b003ff8                __irq_flags = (__dtcm_top - 0x8)
                0x0b003ffc                __irq_vector = (__dtcm_top - 0x4)
                0x0b003f00                __sp_svc = (__dtcm_top - 0x100)
                0x0b003e00                __sp_irq = (__sp_svc - 0x100)
                0x0b003d00                __sp_usr = (__sp_irq - 0x100)

.init           0x02000000      0x2e8
                0x02000000                __text_start = .
 *(.init)
 .init          0x02000000      0x2d0 c:/devkitpro2007/devkitarm/bin/../lib/gcc/arm-eabi/4.1.2/../../../../arm-eabi/lib/ds_arm9_crt0.o
                0x02000000                _start
 .init          0x020002d0        0xc c:/devkitpro2007/devkitarm/bin/../lib/gcc/arm-eabi/4.1.2/crti.o
                0x020002d0                _init
 .init          0x020002dc        0xc c:/devkitpro2007/devkitarm/bin/../lib/gcc/arm-eabi/4.1.2/crtn.o
                0x020002e8                . = ALIGN (0x4)

.plt
 *(.plt)

.text           0x02000300    0x27cdc
 *(EXCLUDE_FILE(*.itcm*) .text)
 .text          0x02000300        0x0 c:/devkitpro2007/devkitarm/bin/../lib/gcc/arm-eabi/4.1.2/../../../../arm-eabi/lib/ds_arm9_crt0.o
 .text          0x02000300        0x0 c:/devkitpro2007/devkitarm/bin/../lib/gcc/arm-eabi/4.1.2/crti.o
 .text          0x02000300       0xa4 c:/devkitpro2007/devkitarm/bin/../lib/gcc/arm-eabi/4.1.2/crtbegin.o
 .text          0x020003a4        0x0 ./SNES_global.o
 .text          0x020003a4      0x150 ./apu.o
                0x02000454                APU_saveSpc
                0x020003a4                ARM7_fifo_init
                0x02000464                APU_clear
                0x020003bc                SendArm7Command
                0x02000490                APU_playSong
                0x02000400                APU_stop
                0x0200048c                APU_command
                0x0200044c                APU_playSpc
                0x02000434                APU_nice_reset
                0x020003f0                APU_reset
                0x0200045c                APU_loadSpc
                0x020003f8                APU_pause
 .text          0x020004f4     0x136c ./core.o
                0x02000a04                HDMA_write
                0x020004f4                read_mouse
                0x020007c0                update_joypads
                0x02000888                GoIRQ
                0x02001248                PPU_fastDMA_2118_1
                0x02001530                DMA_transfert
                0x02000960                GoNMI
                0x02000600                read_scope
                0x02000778                read_joypads
                0x020006f8                SNES_update
                0x02000d24                HDMA_transfert
 .text          0x02001860     0x31dc ./engine.o
                0x02001910                SetCFG
                0x02001990                trace_CPUFast
                0x0200457c                trace_CPU
                0x020018b8                readSRAM
                0x02004860                saveSRAM
                0x02001a14                show_opcode
                0x020048c8                loadSRAM
                0x02001860                writeSRAM
                0x020047a4                initSNESEmpty
                0x02004934                changeROM
 .text          0x02004a3c      0x71c ./fs.o
                0x02004fac                FS_getDirectoryList
                0x02004edc                FS_chdir
                0x02004d08                FS_printlog
                0x02004ee0                FS_init
                0x02004cbc                FS_saveFile
                0x02004a3c                FS_shouldFreeROM
                0x02004e5c                FS_printlogBufOnly
                0x02004f24                getFileExtension
                0x02004c14                FS_loadROM
                0x02004b64                FS_loadROMForPaging
                0x02004e14                FS_flog
                0x02004a44                FS_loadROMPage
                0x02004ae8                FS_loadFile
 .text          0x02005158      0x47c ./gui.o
                0x020051f0                GUI_printfC
                0x0200558c                GUI_createList
                0x02005194                T
                0x02005404                GUI_displayList
                0x02005548                GUI_setItem
                0x02005198                LOG
                0x0200531c                GUI_displayMenuBack
                0x020052c0                GUI_printf
                0x02005158                GUI_checkMenu
                0x020054b8                GUI_checkList
                0x02005254                GUI_displayMenuTitle
                0x02005398                GUI_displayMenu
 .text          0x020055d4       0x20 ./intr.o
                0x020055f0                DesMuMeDebug
                0x020055d4                IntrHandlerAsm
 .text          0x020055f4     0x1410 ./main.o
                0x02005ba8                SPC_jukebox_choose_real_time
                0x02005754                initGUI
                0x020056b8                waitReleaseTouch
                0x02006910                Hblank
                0x02005b64                superTouchReadXY
                0x02005f44                handleMenu
                0x02005690                waitHeldTouch
                0x020064a4                main
                0x020055f4                Vblank
                0x02005dd8                handle_saveState
                0x02005958                selectSong
                0x02005a00                loadROM
                0x02005c5c                waitPressTouch
                0x02005c84                handle_loadState
                0x020056e0                updateOptions
 .text          0x02006a04      0xc24 ./memmap.o
                0x02006f2c                InitHiROMMap
                0x020071a8                InitLargeHiROMMap
                0x0200753c                InitMap
                0x020074a4                mem_init_paging
                0x02006a04                WriteProtectROM
                0x02007454                mem_reset_paging
                0x02006aa0                MapRAM
                0x02006a60                FixMap
                0x020073c8                mem_getbaseaddress
                0x02006b44                InitLoROMMap
                0x0200743c                InitLargeLoROMMap
                0x020075d4                mem_clear_paging
 .text          0x02007628      0x328 ./opcodes.o
                0x0200777c                CPU_unpack
                0x020078e0                CPU_goto
                0x02007628                CPU_pack
 .text          0x02007950        0x0 ./opcodes2.o
 .text          0x02007950     0x4448 ./ppu.o
                0x02008954                PPU_setBackColor
                0x0200859c                draw_mode_7_line
                0x0200a2a4                draw_plane_64_30
                0x0200afc8                renderMode3
                0x02007950                init_render
                0x020089bc                PPU_setPalette
                0x020087b0                switchToMode7
                0x0200b354                renderMode1
                0x02007c0c                add_tile_2
                0x02007a00                check_tile_addr
                0x020094f8                draw_plane_64_60
                0x02008844                renderMode7
                0x0200ba30                draw_screen
                0x0200808c                draw_sprites
                0x02008cb0                get_joypad
                0x02007d4c                add_tile_8
                0x02009c18                draw_plane_32_60
                0x020079ec                check_sprite_addr
                0x02008fb8                PPU_setScreen
                0x02007f68                update_scroll
                0x02007ca0                add_tile_4
                0x02007a14                check_tile
                0x02009214                draw_plane_32_30_squiz
                0x0200a96c                draw_plane_32_30
                0x02008d88                PPU_update
                0x02008bcc                PPU_reset
                0x02008038                draw_tile_sprite_normal
                0x02007eec                PPU_setMap
                0x02007b24                add_sprite_tile_4
 .text          0x0200bd98      0x4fc ./snapshot.o
                0x0200c1f8                get_snapshot_name
                0x0200bd98                write_snapshot
                0x0200bfd4                read_snapshot
 .text          0x0200c294      0x7d4 ./snes.o
                0x0200c7d0                reset_CPU
                0x0200c494                load_ROM
                0x0200c2c8                UnInterleaveROM
                0x0200c70c                reset_GFX
                0x0200c294                cnt_alphachar
                0x0200c8c4                reset_SNES
                0x0200ca64                init_GFX
 .text          0x0200ca68      0x444 ./touch.o
                0x0200cb74                ADC_to_SCR
                0x0200ca68                PrecalculateCalibrationData
                0x0200cc64                mytouchReadXY
 .text          0x0200ceac       0x9c c:/devkitPro2007/libnds/lib\libfat.a(libfat.o)
                0x0200ceac                fatSetDefaultInterface
                0x0200ced0                fatMountCustomInterface
                0x0200ceb8                fatUnsafeUnmount
                0x0200cedc                fatMountNormalInterface
                0x0200cec4                fatUnmount
                0x0200cf38                fatInitDefault
                0x0200cee8                fatInit
 .text          0x0200cf48      0x4d0 c:/devkitPro2007/libnds/lib\libfat.a(partition.o)
                0x0200cf94                _FAT_partition_getPartitionFromPath
                0x0200cf6c                _FAT_partition_setDefaultPartition
                0x0200d34c                _FAT_partition_mountCustomInterface
                0x0200d070                _FAT_partition_unmount
                0x0200d3ac                _FAT_partition_mount
                0x0200cf48                _FAT_partition_setDefaultInterface
                0x0200d010                _FAT_partition_unsafeUnmount
 .text          0x0200d418       0xb8 c:/devkitPro2007/libnds/lib\libfat.a(disc.o)
                0x0200d494                _FAT_disc_findInterface
                0x0200d454                _FAT_disc_dsSlotFindInterface
                0x0200d418                _FAT_disc_gbaSlotFindInterface
 .text          0x0200d4d0       0x1c c:/devkitPro2007/libnds/lib\libfat.a(io_m3cf.o)
                0x0200d4d0                _M3CF_startup
 .text          0x0200d4ec      0x528 c:/devkitPro2007/libnds/lib\libfat.a(io_m3sd.o)
                0x0200d894                _M3SD_clearStatus
                0x0200d668                _M3SD_cmd_17byte_response
                0x0200d76c                _M3SD_readSectors
                0x0200d730                _M3SD_isInserted
                0x0200d8b8                _M3SD_writeSectors
                0x0200d7f8                _M3SD_shutdown
                0x0200d650                _M3SD_cmd_6byte_response
                0x0200d8a0                _M3SD_startUp
 .text          0x0200da14       0x14 c:/devkitPro2007/libnds/lib\libfat.a(io_mpcf.o)
                0x0200da14                _MPCF_startup
 .text          0x0200da28      0x92c c:/devkitPro2007/libnds/lib\libfat.a(io_njsd.o)
                0x0200de34                _NJSD_writeSectors
                0x0200de1c                _NJSD_clearStatus
                0x0200ddc0                _NJSD_cmd_6byte_response
                0x0200ddf0                _NJSD_isInserted
                0x0200e0c4                _NJSD_startup
                0x0200de28                _NJSD_shutdown
                0x0200e160                _NJSD_readSectors
                0x0200ddd8                _NJSD_cmd_17byte_response
 .text          0x0200e354      0x694 c:/devkitPro2007/libnds/lib\libfat.a(io_nmmc.o)
                0x0200e53c                _NMMC_isInserted
                0x0200e670                _NMMC_writeSectors
                0x0200e810                _NMMC_startUp
                0x0200e530                _NMMC_shutdown
                0x0200e4b4                _NMMC_clearStatus
                0x0200e598                _NMMC_readSectors
 .text          0x0200e9e8       0x18 c:/devkitPro2007/libnds/lib\libfat.a(io_sccf.o)
                0x0200e9e8                _SCCF_startup
 .text          0x0200ea00      0x388 c:/devkitPro2007/libnds/lib\libfat.a(io_scsd.o)
                0x0200eb08                _SCSD_shutdown
                0x0200ec80                _SCSD_startUp
                0x0200ebf8                _SCSD_isInserted
                0x0200ec74                _SCSD_clearStatus
                0x0200ec94                _SCSD_cmd_17byte_response
                0x0200ecac                _SCSD_cmd_6byte_response
                0x0200eb88                _SCSD_readSectors
                0x0200ecc4                _SCSD_writeSectors
 .text          0x0200ed88      0x258 c:/devkitPro2007/libnds/lib\libfat.a(io_sd_common.o)
                0x0200ed88                _SD_CRC7
                0x0200ede4                _SD_CRC16
                0x0200eee0                _SD_InitCard
 *fill*         0x0200efe0       0x20 ff
 .text          0x0200f000     0x8000 c:/devkitPro2007/libnds/lib\libfat.a(io_dldi.o)
                0x0200f060                _io_dldi
 .text          0x02017000       0xc0 c:/devkitPro2007/libnds/lib\libfat.a(io_scsd_s.o)
                0x02017000                _SCSD_writeData_s
 .text          0x020170c0      0x2c0 c:/devkitPro2007/libnds/lib\libfat.a(cache.o)
                0x02017184                _FAT_cache_flush
                0x02017260                _FAT_cache_writePartialSector
                0x020171d0                _FAT_cache_invalidate
                0x020172e8                _FAT_cache_destructor
                0x02017304                _FAT_cache_constructor
                0x020172ac                _FAT_cache_readPartialSector
                0x020171fc                _FAT_cache_eraseWritePartialSector
 .text          0x02017380      0x708 c:/devkitPro2007/libnds/lib\libfat.a(fatdir.o)
                0x02017438                _FAT_stat_r
                0x0201739c                _FAT_dirnext_r
                0x02017520                _FAT_unlink_r
                0x0201770c                _FAT_rename_r
                0x02017380                _FAT_link_r
                0x0201738c                _FAT_dirclose_r
                0x020174b0                _FAT_chdir_r
                0x02017404                _FAT_dirreset_r
                0x02017668                _FAT_diropen_r
                0x0201788c                _FAT_mkdir_r
 .text          0x02017a88      0xc28 c:/devkitPro2007/libnds/lib\libfat.a(fatfile.o)
                0x02018208                _FAT_write_r
                0x02017af8                _FAT_seek_r
                0x02017fc0                _FAT_read_r
                0x02017d08                _FAT_open_r
                0x02017c28                _FAT_close_r
                0x02017a88                _FAT_fstat_r
 .text          0x020186b0      0x398 c:/devkitPro2007/libnds/lib\libfat.a(file_allocation_table.o)
                0x0201890c                _FAT_fat_clearLinks
                0x020186b0                _FAT_fat_nextCluster
                0x020189e0                _FAT_fat_linkFreeClusterCleared
                0x0201895c                _FAT_fat_linkFreeCluster
                0x02018798                _FAT_fat_lastCluster
 .text          0x02018a48       0xdc c:/devkitPro2007/libnds/lib\libfat.a(filetime.o)
                0x02018a94                _FAT_filetime_getDateFromRTC
                0x02018ad8                _FAT_filetime_to_time_t
                0x02018a48                _FAT_filetime_getTimeFromRTC
 .text          0x02018b24      0x30c c:/devkitPro2007/libnds/lib\libfat.a(io_cf_common.o)
                0x02018b24                _CF_isInserted
                0x02018cb8                _CF_writeSectors
                0x02018bac                _CF_readSectors
                0x02018de0                _CF_startup
                0x02018b44                _CF_clearStatus
                0x02018dd4                _CF_shutdown
 .text          0x02018e30       0xa0 c:/devkitPro2007/libnds/lib\libfat.a(io_m3_common.o)
                0x02018e34                _M3_changeMode
 .text          0x02018ed0       0x18 c:/devkitPro2007/libnds/lib\libfat.a(io_sc_common.o)
                0x02018ed0                _SC_changeMode
 .text          0x02018ee8      0xec8 c:/devkitPro2007/libnds/lib\libfat.a(directory.o)
                0x02019448                _FAT_directory_chdir
                0x02019730                _FAT_directory_entryStat
                0x02019478                _FAT_directory_isValidAlias
                0x02019670                _FAT_directory_removeEntry
                0x02018f74                _FAT_directory_getRootEntry
                0x02019560                _FAT_directory_entryFromPosition
                0x02019040                _FAT_directory_getNextEntry
                0x02019204                _FAT_directory_getFirstEntry
                0x02019514                _FAT_directory_isValidLfn
                0x02018f5c                _FAT_directory_entryGetCluster
                0x020197fc                _FAT_directory_addEntry
                0x020192bc                _FAT_directory_entryFromPath
 .text          0x02019db0      0x580 c:/devkitPro2007/libnds/lib\libnds9.a(console.o)
                0x0201a12c                con_write
                0x02019f5c                consoleInit
                0x02019e18                consolePrintChar
                0x02019f48                consoleClear
                0x0201a0e4                consoleDemoInit
                0x0201a0c0                consoleInitDefault
 .text          0x0201a330      0x158 c:/devkitPro2007/libnds/lib\libnds9.a(initSystem.o)
                0x0201a330                initSystem
 .text          0x0201a488      0x100 c:/devkitPro2007/libnds/lib\libnds9.a(keys.o)
                0x0201a4b8                keysSetRepeat
                0x0201a4a8                keysDownRepeat
                0x0201a488                keysHeld
                0x0201a4dc                keysUp
                0x0201a494                keysDown
                0x0201a4f4                scanKeys
 .text          0x0201a588      0x110 c:/devkitPro2007/libnds/lib\libnds9.a(video.o)
                0x0201a648                vramSetBankF
                0x0201a5d8                vramRestoreMainBanks
                0x0201a670                vramSetBankH
                0x0201a620                vramSetBankD
                0x0201a634                vramSetBankE
                0x0201a65c                vramSetBankG
                0x0201a5cc                vramRestorMainBanks
                0x0201a5f8                vramSetBankB
                0x0201a60c                vramSetBankC
                0x0201a684                vramSetBankI
                0x0201a588                vramSetMainBanks
                0x0201a5e4                vramSetBankA
 .text          0x0201a698      0x670 c:/devkitPro2007/libnds/lib\libnds9.a(card.o)
                0x0201a878                cardEepromGetType
                0x0201a6fc                cardStartTransfer
                0x0201a7a0                cardReadHeader
                0x0201a904                cardReadEeprom
                0x0201a7bc                cardReadID
                0x0201ab58                cardEepromGetSize
                0x0201a774                cardRead00
                0x0201a7dc                cardEepromCommand
                0x0201acb4                cardEepromChipErase
                0x0201a6bc                cardPolledTransfer
                0x0201a9b0                cardWriteEeprom
                0x0201a744                cardWriteAndRead
                0x0201a698                cardWriteCommand
                0x0201ac0c                cardEepromSectorErase
                0x0201a864                cardEepromReadID
 .text          0x0201ad08      0x208 c:/devkitPro2007/libnds/lib\libnds9.a(interrupts.o)
                0x0201ae70                irqEnable
                0x0201ad0c                irqSet
                0x0201aec4                irqDisable
                0x0201ad74                irqInit
                0x0201ad08                irqDummy
                0x0201ae40                irqInitHandler
                0x0201adc0                irqClear
 .text          0x0201af10       0x70 c:/devkitPro2007/libnds/lib\libnds9.a(biosCalls.o)
                0x0201af20                swiSleep
                0x0201af5a                swiDecompressLZSSVram
                0x0201af42                swiFastCopy
                0x0201af46                swiSqrt
                0x0201af10                swiSoftReset
                0x0201af4a                swiCRC16
                0x0201af5e                swiDecompressHuffman
                0x0201af76                swiSetHaltCR
                0x0201af2c                swiRemainder
                0x0201af52                swiUnpackBits
                0x0201af56                swiDecompressLZSSWram
                0x0201af72                swiDecodeDelta16
                0x0201af14                swiDelay
                0x0201af32                swiDivMod
                0x0201af66                swiDecompressRLEVram
                0x0201af62                swiDecompressRLEWram
                0x0201af6e                swiDecodeDelta8
                0x0201af28                swiDivide
                0x0201af24                swiChangeSoundBias
                0x0201af1c                swiWaitForVBlank
                0x0201af18                swiIntrWait
                0x0201af4e                swiIsDebugger
                0x0201af6a                swiWaitForIRQ
                0x0201af3e                swiCopy
 .text          0x0201af80        0x0 c:/devkitPro2007/libnds/lib\libnds9.a(interruptDispatcher.o)
 .text          0x0201af80        0x0 c:/devkitPro2007/libnds/lib\libnds9.a(default_font.o)
 .text          0x0201af80      0x114 c:/devkitpro2007/devkitarm/bin/../lib/gcc/arm-eabi/4.1.2\libgcc.a(_udivsi3.o)
                0x0201af80                __udivsi3
                0x0201af80                __aeabi_uidiv
                0x0201b07c                __aeabi_uidivmod
 .text          0x0201b094      0x144 c:/devkitpro2007/devkitarm/bin/../lib/gcc/arm-eabi/4.1.2\libgcc.a(_divsi3.o)
                0x0201b094                __aeabi_idiv
                0x0201b094                __divsi3
                0x0201b1c0                __aeabi_idivmod
 .text          0x0201b1d8        0x4 c:/devkitpro2007/devkitarm/bin/../lib/gcc/arm-eabi/4.1.2\libgcc.a(_dvmd_tls.o)
                0x0201b1d8                __aeabi_ldiv0
                0x0201b1d8                __div0
                0x0201b1d8                __aeabi_idiv0
 .text          0x0201b1dc        0x0 c:/devkitpro2007/devkitarm/bin/../lib/gcc/arm-eabi/4.1.2/../../../../arm-eabi/lib\libc.a(lib_a-ctype_.o)
 .text          0x0201b1dc      0x110 c:/devkitpro2007/devkitarm/bin/../lib/gcc/arm-eabi/4.1.2/../../../../arm-eabi/lib\libc.a(lib_a-fclose.o)
                0x0201b1dc                _fclose_r
                0x0201b2d8                fclose
 .text          0x0201b2ec      0x1b8 c:/devkitpro2007/devkitarm/bin/../lib/gcc/arm-eabi/4.1.2/../../../../arm-eabi/lib\libc.a(lib_a-fflush.o)
                0x0201b2ec                fflush
 .text          0x0201b4a4      0x2bc c:/devkitpro2007/devkitarm/bin/../lib/gcc/arm-eabi/4.1.2/../../../../arm-eabi/lib\libc.a(lib_a-findfp.o)
                0x0201b510                __sinit
                0x0201b628                __sfmoreglue
                0x0201b618                _cleanup
                0x0201b5f8                _cleanup_r
                0x0201b5cc                __fp_lock_all
                0x0201b500                __sfp_lock_acquire
                0x0201b678                __sfp
                0x0201b50c                __sinit_lock_release
                0x0201b5a0                __fp_unlock_all
                0x0201b504                __sfp_lock_release
                0x0201b508                __sinit_lock_acquire
 .text          0x0201b760       0xfc c:/devkitpro2007/devkitarm/bin/../lib/gcc/arm-eabi/4.1.2/../../../../arm-eabi/lib\libc.a(lib_a-fopen.o)
                0x0201b840                fopen
                0x0201b760                _fopen_r
 .text          0x0201b85c      0x228 c:/devkitpro2007/devkitarm/bin/../lib/gcc/arm-eabi/4.1.2/../../../../arm-eabi/lib\libc.a(lib_a-fread.o)
                0x0201ba40                fread
                0x0201b85c                _fread_r
 .text          0x0201ba84      0x3c0 c:/devkitpro2007/devkitarm/bin/../lib/gcc/arm-eabi/4.1.2/../../../../arm-eabi/lib\libc.a(lib_a-freer.o)
                0x0201bb8c                _free_r
                0x0201ba84                _malloc_trim_r
 .text          0x0201be44      0x490 c:/devkitpro2007/devkitarm/bin/../lib/gcc/arm-eabi/4.1.2/../../../../arm-eabi/lib\libc.a(lib_a-fseek.o)
                0x0201c2a8                fseek
                0x0201be44                _fseek_r
 .text          0x0201c2d4      0x11c c:/devkitpro2007/devkitarm/bin/../lib/gcc/arm-eabi/4.1.2/../../../../arm-eabi/lib\libc.a(lib_a-fwalk.o)
                0x0201c360                _fwalk
                0x0201c2d4                _fwalk_reent
 .text          0x0201c3f0       0xc8 c:/devkitpro2007/devkitarm/bin/../lib/gcc/arm-eabi/4.1.2/../../../../arm-eabi/lib\libc.a(lib_a-fwrite.o)
                0x0201c3f0                _fwrite_r
                0x0201c474                fwrite
 .text          0x0201c4b8        0x0 c:/devkitpro2007/devkitarm/bin/../lib/gcc/arm-eabi/4.1.2/../../../../arm-eabi/lib\libc.a(lib_a-impure.o)
 .text          0x0201c4b8       0xd4 c:/devkitpro2007/devkitarm/bin/../lib/gcc/arm-eabi/4.1.2/../../../../arm-eabi/lib\libc.a(lib_a-init.o)
                0x0201c504                __libc_init_array
                0x0201c4b8                __libc_fini_array
 .text          0x0201c58c       0x74 c:/devkitpro2007/devkitarm/bin/../lib/gcc/arm-eabi/4.1.2/../../../../arm-eabi/lib\libc.a(lib_a-iprintf.o)
                0x0201c58c                _iprintf_r
                0x0201c5c0                iprintf
 .text          0x0201c600      0x168 c:/devkitpro2007/devkitarm/bin/../lib/gcc/arm-eabi/4.1.2/../../../../arm-eabi/lib\libc.a(lib_a-makebuf.o)
                0x0201c600                __smakebuf
 .text          0x0201c768       0x50 c:/devkitpro2007/devkitarm/bin/../lib/gcc/arm-eabi/4.1.2/../../../../arm-eabi/lib\libc.a(lib_a-malloc.o)
                0x0201c790                malloc
                0x0201c768                free
 .text          0x0201c7b8      0x77c c:/devkitpro2007/devkitarm/bin/../lib/gcc/arm-eabi/4.1.2/../../../../arm-eabi/lib\libc.a(lib_a-mallocr.o)
                0x0201c7b8                _malloc_r
 .text          0x0201cf34       0x9c c:/devkitpro2007/devkitarm/bin/../lib/gcc/arm-eabi/4.1.2/../../../../arm-eabi/lib\libc.a(lib_a-memcpy.o)
                0x0201cf34                memcpy
 .text          0x0201cfd0       0xfc c:/devkitpro2007/devkitarm/bin/../lib/gcc/arm-eabi/4.1.2/../../../../arm-eabi/lib\libc.a(lib_a-memmove.o)
                0x0201cfd0                memmove
 .text          0x0201d0cc       0x98 c:/devkitpro2007/devkitarm/bin/../lib/gcc/arm-eabi/4.1.2/../../../../arm-eabi/lib\libc.a(lib_a-memset.o)
                0x0201d0cc                memset
 .text          0x0201d164        0x8 c:/devkitpro2007/devkitarm/bin/../lib/gcc/arm-eabi/4.1.2/../../../../arm-eabi/lib\libc.a(lib_a-mlock.o)
                0x0201d168                __malloc_unlock
                0x0201d164                __malloc_lock
 .text          0x0201d16c       0x74 c:/devkitpro2007/devkitarm/bin/../lib/gcc/arm-eabi/4.1.2/../../../../arm-eabi/lib\libc.a(lib_a-printf.o)
                0x0201d16c                printf
                0x0201d1ac                _printf_r
 .text          0x0201d1e0      0x1e0 c:/devkitpro2007/devkitarm/bin/../lib/gcc/arm-eabi/4.1.2/../../../../arm-eabi/lib\libc.a(lib_a-refill.o)
                0x0201d218                __srefill_r
 .text          0x0201d3c0      0x1ac c:/devkitpro2007/devkitarm/bin/../lib/gcc/arm-eabi/4.1.2/../../../../arm-eabi/lib\libc.a(lib_a-setvbuf.o)
                0x0201d3c0                setvbuf
 .text          0x0201d56c      0x108 c:/devkitpro2007/devkitarm/bin/../lib/gcc/arm-eabi/4.1.2/../../../../arm-eabi/lib\libc.a(lib_a-siscanf.o)
                0x0201d574                _siscanf_r
                0x0201d5f4                siscanf
 .text          0x0201d674       0xdc c:/devkitpro2007/devkitarm/bin/../lib/gcc/arm-eabi/4.1.2/../../../../arm-eabi/lib\libc.a(lib_a-sprintf.o)
                0x0201d6e8                _sprintf_r
                0x0201d674                sprintf
 .text          0x0201d750      0x128 c:/devkitpro2007/devkitarm/bin/../lib/gcc/arm-eabi/4.1.2/../../../../arm-eabi/lib\libc.a(lib_a-stdio.o)
                0x0201d778                __sseek
                0x0201d830                __sread
                0x0201d750                __sclose
                0x0201d7c4                __swrite
 .text          0x0201d878       0x9c c:/devkitpro2007/devkitarm/bin/../lib/gcc/arm-eabi/4.1.2/../../../../arm-eabi/lib\libc.a(lib_a-strcasecmp.o)
                0x0201d878                strcasecmp
 .text          0x0201d914       0x98 c:/devkitpro2007/devkitarm/bin/../lib/gcc/arm-eabi/4.1.2/../../../../arm-eabi/lib\libc.a(lib_a-strcat.o)
                0x0201d914                strcat
 .text          0x0201d9ac      0x118 c:/devkitpro2007/devkitarm/bin/../lib/gcc/arm-eabi/4.1.2/../../../../arm-eabi/lib\libc.a(lib_a-strchr.o)
                0x0201d9ac                strchr
 .text          0x0201dac4       0xd0 c:/devkitpro2007/devkitarm/bin/../lib/gcc/arm-eabi/4.1.2/../../../../arm-eabi/lib\libc.a(lib_a-strcmp.o)
                0x0201dac4                strcmp
 .text          0x0201db94       0xa0 c:/devkitpro2007/devkitarm/bin/../lib/gcc/arm-eabi/4.1.2/../../../../arm-eabi/lib\libc.a(lib_a-strcpy.o)
                0x0201db94                strcpy
 .text          0x0201dc34       0x90 c:/devkitpro2007/devkitarm/bin/../lib/gcc/arm-eabi/4.1.2/../../../../arm-eabi/lib\libc.a(lib_a-strlen.o)
                0x0201dc34                strlen
 .text          0x0201dcc4       0xb8 c:/devkitpro2007/devkitarm/bin/../lib/gcc/arm-eabi/4.1.2/../../../../arm-eabi/lib\libc.a(lib_a-strncasecmp.o)
                0x0201dcc4                strncasecmp
 .text          0x0201dd7c      0x13c c:/devkitpro2007/devkitarm/bin/../lib/gcc/arm-eabi/4.1.2/../../../../arm-eabi/lib\libc.a(lib_a-strncmp.o)
                0x0201dd7c                strncmp
 .text          0x0201deb8      0x114 c:/devkitpro2007/devkitarm/bin/../lib/gcc/arm-eabi/4.1.2/../../../../arm-eabi/lib\libc.a(lib_a-strncpy.o)
                0x0201deb8                strncpy
 .text          0x0201dfcc       0x48 c:/devkitpro2007/devkitarm/bin/../lib/gcc/arm-eabi/4.1.2/../../../../arm-eabi/lib\libc.a(lib_a-strnlen.o)
                0x0201dfcc                strnlen
 .text          0x0201e014       0x50 c:/devkitpro2007/devkitarm/bin/../lib/gcc/arm-eabi/4.1.2/../../../../arm-eabi/lib\libc.a(lib_a-strpbrk.o)
                0x0201e014                strpbrk
 .text          0x0201e064       0x50 c:/devkitpro2007/devkitarm/bin/../lib/gcc/arm-eabi/4.1.2/../../../../arm-eabi/lib\libc.a(lib_a-strrchr.o)
                0x0201e064                strrchr
 .text          0x0201e0b4       0x54 c:/devkitpro2007/devkitarm/bin/../lib/gcc/arm-eabi/4.1.2/../../../../arm-eabi/lib\libc.a(lib_a-strstr.o)
                0x0201e0b4                strstr
 .text          0x0201e108       0x44 c:/devkitpro2007/devkitarm/bin/../lib/gcc/arm-eabi/4.1.2/../../../../arm-eabi/lib\libc.a(lib_a-strupr.o)
                0x0201e108                strupr
 .text          0x0201e14c       0x30 c:/devkitpro2007/devkitarm/bin/../lib/gcc/arm-eabi/4.1.2/../../../../arm-eabi/lib\libc.a(lib_a-sysstat.o)
                0x0201e14c                stat
 .text          0x0201e17c       0x1c c:/devkitpro2007/devkitarm/bin/../lib/gcc/arm-eabi/4.1.2/../../../../arm-eabi/lib\libc.a(lib_a-toupper.o)
                0x0201e17c                toupper
 .text          0x0201e198     0x1358 c:/devkitpro2007/devkitarm/bin/../lib/gcc/arm-eabi/4.1.2/../../../../arm-eabi/lib\libc.a(lib_a-vfiprintf.o)
                0x0201f4c4                vfiprintf
                0x0201e1d8                _vfiprintf_r
 .text          0x0201f4f0      0xff8 c:/devkitpro2007/devkitarm/bin/../lib/gcc/arm-eabi/4.1.2/../../../../arm-eabi/lib\libc.a(lib_a-vfiscanf.o)
                0x02020440                _vfiscanf_r
                0x0202048c                vfiscanf
                0x0201f4f0                __svfiscanf_r
                0x02020414                __svfiscanf
 .text          0x020204e8     0x21d4 c:/devkitpro2007/devkitarm/bin/../lib/gcc/arm-eabi/4.1.2/../../../../arm-eabi/lib\libc.a(lib_a-vfprintf.o)
                0x02020528                _vfprintf_r
                0x02022690                vfprintf
 .text          0x020226bc      0x110 c:/devkitpro2007/devkitarm/bin/../lib/gcc/arm-eabi/4.1.2/../../../../arm-eabi/lib\libc.a(lib_a-vsnprintf.o)
                0x02022748                vsnprintf
                0x020226bc                _vsnprintf_r
 .text          0x020227cc       0x84 c:/devkitpro2007/devkitarm/bin/../lib/gcc/arm-eabi/4.1.2/../../../../arm-eabi/lib\libc.a(lib_a-wcrtomb.o)
                0x020227cc                _wcrtomb_r
                0x02022824                wcrtomb
 .text          0x02022850      0x180 c:/devkitpro2007/devkitarm/bin/../lib/gcc/arm-eabi/4.1.2/../../../../arm-eabi/lib\libc.a(lib_a-wcsrtombs.o)
                0x02022850                _wcsrtombs_r
                0x0202298c                wcsrtombs
 .text          0x020229d0      0x428 c:/devkitpro2007/devkitarm/bin/../lib/gcc/arm-eabi/4.1.2/../../../../arm-eabi/lib\libc.a(lib_a-wctomb_r.o)
                0x020229d0                _wctomb_r
 .text          0x02022df8      0x10c c:/devkitpro2007/devkitarm/bin/../lib/gcc/arm-eabi/4.1.2/../../../../arm-eabi/lib\libc.a(lib_a-wsetup.o)
                0x02022df8                __swsetup
 *fill*         0x02022f04        0x4 ff
 .text          0x02022f08     0x1660 c:/devkitpro2007/devkitarm/bin/../lib/gcc/arm-eabi/4.1.2/../../../../arm-eabi/lib\libc.a(lib_a-dtoa.o)
                0x02023114                _dtoa_r
 .text          0x02024568       0xa4 c:/devkitpro2007/devkitarm/bin/../lib/gcc/arm-eabi/4.1.2/../../../../arm-eabi/lib\libc.a(lib_a-flags.o)
                0x02024568                __sflags
 .text          0x0202460c      0x44c c:/devkitpro2007/devkitarm/bin/../lib/gcc/arm-eabi/4.1.2/../../../../arm-eabi/lib\libc.a(lib_a-fvwrite.o)
                0x0202460c                __sfvwrite_r
 .text          0x02024a58       0x24 c:/devkitpro2007/devkitarm/bin/../lib/gcc/arm-eabi/4.1.2/../../../../arm-eabi/lib\libc.a(lib_a-iswspace.o)
                0x02024a58                iswspace
 .text          0x02024a7c       0xb0 c:/devkitpro2007/devkitarm/bin/../lib/gcc/arm-eabi/4.1.2/../../../../arm-eabi/lib\libc.a(lib_a-locale.o)
                0x02024aa8                _setlocale_r
                0x02024a7c                __locale_charset
                0x02024a8c                _localeconv_r
                0x02024b10                setlocale
                0x02024a98                localeconv
 .text          0x02024b2c       0xac c:/devkitpro2007/devkitarm/bin/../lib/gcc/arm-eabi/4.1.2/../../../../arm-eabi/lib\libc.a(lib_a-mbrtowc.o)
                0x02024b94                mbrtowc
                0x02024b2c                _mbrtowc_r
 .text          0x02024bd8       0x50 c:/devkitpro2007/devkitarm/bin/../lib/gcc/arm-eabi/4.1.2/../../../../arm-eabi/lib\libc.a(lib_a-mbtowc_r.o)
                0x02024bd8                _mbtowc_r
 .text          0x02024c28      0x108 c:/devkitpro2007/devkitarm/bin/../lib/gcc/arm-eabi/4.1.2/../../../../arm-eabi/lib\libc.a(lib_a-memchr.o)
                0x02024c28                memchr
 .text          0x02024d30      0xd34 c:/devkitpro2007/devkitarm/bin/../lib/gcc/arm-eabi/4.1.2/../../../../arm-eabi/lib\libc.a(lib_a-mprec.o)
                0x02025030                _mprec_log10
                0x020250f4                __any_on
                0x02025180                _Balloc
                0x02024fac                __ratio
                0x0202577c                __i2b
                0x02024ef0                __b2d
                0x02025970                __s2b
                0x02024e38                __mcmp
                0x02024d4c                __hi0bits
                0x02025874                __pow5mult
                0x020254a0                __lshift
                0x020255b0                __multiply
                0x0202521c                __d2b
                0x0202509c                __copybits
                0x02024e90                __ulp
                0x02025360                __mdiff
                0x02024da4                __lo0bits
                0x020257a0                __multadd
                0x02024d30                _Bfree
 .text          0x02025a64      0x61c c:/devkitpro2007/devkitarm/bin/../lib/gcc/arm-eabi/4.1.2/../../../../arm-eabi/lib\libc.a(lib_a-reallocr.o)
                0x02025a64                _realloc_r
 .text          0x02026080       0x3c c:/devkitpro2007/devkitarm/bin/../lib/gcc/arm-eabi/4.1.2/../../../../arm-eabi/lib\libc.a(lib_a-s_isinfd.o)
                0x02026080                __isinfd
 .text          0x020260bc       0x30 c:/devkitpro2007/devkitarm/bin/../lib/gcc/arm-eabi/4.1.2/../../../../arm-eabi/lib\libc.a(lib_a-s_isnand.o)
                0x020260bc                __isnand
 .text          0x020260ec       0xc8 c:/devkitpro2007/devkitarm/bin/../lib/gcc/arm-eabi/4.1.2/../../../../arm-eabi/lib\libc.a(lib_a-sccl.o)
                0x020260ec                __sccl
 .text          0x020261b4      0x1f0 c:/devkitpro2007/devkitarm/bin/../lib/gcc/arm-eabi/4.1.2/../../../../arm-eabi/lib\libc.a(lib_a-strtol.o)
                0x02026378                strtol
                0x020261b4                _strtol_r
 .text          0x020263a4      0x1e4 c:/devkitpro2007/devkitarm/bin/../lib/gcc/arm-eabi/4.1.2/../../../../arm-eabi/lib\libc.a(lib_a-strtoul.o)
                0x0202655c                strtoul
                0x020263a4                _strtoul_r
 .text          0x02026588      0x254 c:/devkitpro2007/devkitarm/bin/../lib/gcc/arm-eabi/4.1.2/../../../../arm-eabi/lib\libc.a(lib_a-ungetc.o)
                0x020267c0                ungetc
                0x02026588                __submore
                0x02026644                _ungetc_r
 .text          0x020267dc       0xa0 c:/devkitpro2007/devkitarm/bin/../lib/gcc/arm-eabi/4.1.2/../../../../arm-eabi/lib\libc.a(lib_a-callocr.o)
                0x020267dc                _calloc_r
 .text          0x0202687c      0x41c c:/devkitpro2007/devkitarm/bin/../lib/gcc/arm-eabi/4.1.2\libgcc.a(_addsubdf3.o)
                0x02026c38                __floatdidf
                0x02026bbc                __floatsidf
                0x02026b98                __aeabi_ui2d
                0x0202687c                __aeabi_drsub
                0x02026be4                __extendsfdf2
                0x02026888                __adddf3
                0x02026b98                __floatunsidf
                0x02026888                __aeabi_dadd
                0x02026c24                __aeabi_ul2d
                0x02026884                __aeabi_dsub
                0x02026c24                __floatundidf
                0x02026bbc                __aeabi_i2d
                0x02026c38                __aeabi_l2d
                0x02026be4                __aeabi_f2d
                0x02026884                __subdf3
 .text          0x02026c98      0x49c c:/devkitpro2007/devkitarm/bin/../lib/gcc/arm-eabi/4.1.2\libgcc.a(_muldivdf3.o)
                0x02026f28                __aeabi_ddiv
                0x02026c98                __aeabi_dmul
                0x02026f28                __divdf3
                0x02026c98                __muldf3
 .text          0x02027134      0x140 c:/devkitpro2007/devkitarm/bin/../lib/gcc/arm-eabi/4.1.2\libgcc.a(_cmpdf2.o)
                0x0202722c                __aeabi_dcmple
                0x02027144                __cmpdf2
                0x02027144                __eqdf2
                0x02027134                __gtdf2
                0x020271e4                __aeabi_cdcmple
                0x020271c8                __aeabi_cdrcmple
                0x0202713c                __ltdf2
                0x02027214                __aeabi_dcmplt
                0x0202713c                __ledf2
                0x0202725c                __aeabi_dcmpgt
                0x02027244                __aeabi_dcmpge
                0x02027144                __nedf2
                0x020271fc                __aeabi_dcmpeq
                0x020271e4                __aeabi_cdcmpeq
                0x02027134                __gedf2
 .text          0x02027274       0x5c c:/devkitpro2007/devkitarm/bin/../lib/gcc/arm-eabi/4.1.2\libgcc.a(_fixdfsi.o)
                0x02027274                __fixdfsi
                0x02027274                __aeabi_d2iz
 .text          0x020272d0      0x18c c:/devkitpro2007/devkitarm/bin/../lib/gcc/arm-eabi/4.1.2/../../../../arm-eabi/lib\libsysbase.a(iosupport.o)
                0x02027420                RemoveDevice
                0x020272d0                setDefaultDevice
                0x020272e8                AddDevice
                0x0202737c                FindDevice
 .text          0x0202745c       0x60 c:/devkitpro2007/devkitarm/bin/../lib/gcc/arm-eabi/4.1.2/../../../../arm-eabi/lib\libsysbase.a(close.o)
                0x0202745c                _close_r
 .text          0x020274bc       0x68 c:/devkitpro2007/devkitarm/bin/../lib/gcc/arm-eabi/4.1.2/../../../../arm-eabi/lib\libsysbase.a(fstat.o)
                0x020274bc                _fstat_r
 .text          0x02027524        0x8 c:/devkitpro2007/devkitarm/bin/../lib/gcc/arm-eabi/4.1.2/../../../../arm-eabi/lib\libsysbase.a(isatty.o)
                0x02027524                isatty
 .text          0x0202752c       0x48 c:/devkitpro2007/devkitarm/bin/../lib/gcc/arm-eabi/4.1.2/../../../../arm-eabi/lib\libsysbase.a(lseek.o)
                0x0202752c                _lseek_r
 .text          0x02027574       0xcc c:/devkitpro2007/devkitarm/bin/../lib/gcc/arm-eabi/4.1.2/../../../../arm-eabi/lib\libsysbase.a(open.o)
                0x02027574                _open_r
 .text          0x02027640       0x5c c:/devkitpro2007/devkitarm/bin/../lib/gcc/arm-eabi/4.1.2/../../../../arm-eabi/lib\libsysbase.a(read.o)
                0x02027640                _read_r
 .text          0x0202769c       0x80 c:/devkitpro2007/devkitarm/bin/../lib/gcc/arm-eabi/4.1.2/../../../../arm-eabi/lib\libsysbase.a(sbrk.o)
                0x0202769c                _sbrk_r
 .text          0x0202771c       0x68 c:/devkitpro2007/devkitarm/bin/../lib/gcc/arm-eabi/4.1.2/../../../../arm-eabi/lib\libsysbase.a(stat.o)
                0x0202771c                _stat_r
 .text          0x02027784       0x70 c:/devkitpro2007/devkitarm/bin/../lib/gcc/arm-eabi/4.1.2/../../../../arm-eabi/lib\libsysbase.a(times.o)
                0x0202778c                _gettimeofday_r
                0x02027784                _times_r
                0x020277d0                _times
 .text          0x020277f4       0x5c c:/devkitpro2007/devkitarm/bin/../lib/gcc/arm-eabi/4.1.2/../../../../arm-eabi/lib\libsysbase.a(write.o)
                0x020277f4                _write_r
 .text          0x02027850        0x0 c:/devkitpro2007/devkitarm/bin/../lib/gcc/arm-eabi/4.1.2/../../../../arm-eabi/lib\libsysbase.a(malloc_vars.o)
 .text          0x02027850      0x36c c:/devkitpro2007/devkitarm/bin/../lib/gcc/arm-eabi/4.1.2/../../../../arm-eabi/lib\libsysbase.a(chdir.o)
                0x02027a6c                chdir
                0x02027850                getcwd
                0x020278b8                _concatenate_path
 .text          0x02027bbc      0x20c c:/devkitpro2007/devkitarm/bin/../lib/gcc/arm-eabi/4.1.2/../../../../arm-eabi/lib\libsysbase.a(dir.o)
                0x02027bbc                dirreset
                0x02027c20                dirnext
                0x02027d04                diropen
                0x02027c90                dirclose
 .text          0x02027dc8       0x7c c:/devkitpro2007/devkitarm/bin/../lib/gcc/arm-eabi/4.1.2/../../../../arm-eabi/lib\libsysbase.a(build_argv.o)
                0x02027dc8                build_argv
 .text          0x02027e44       0x10 c:/devkitpro2007/devkitarm/bin/../lib/gcc/arm-eabi/4.1.2/../../../../arm-eabi/lib\libc.a(lib_a-errno.o)
                0x02027e44                __errno
 .text          0x02027e54        0x0 c:/devkitpro2007/devkitarm/bin/../lib/gcc/arm-eabi/4.1.2/crtend.o
 .text          0x02027e54        0x0 c:/devkitpro2007/devkitarm/bin/../lib/gcc/arm-eabi/4.1.2/crtn.o
 *(.text.*)
 *(.stub)
 *(.gnu.warning)
 *(.gnu.linkonce.t*)
 *(.glue_7)
 .glue_7        0x02027e54        0x0 c:/devkitpro2007/devkitarm/bin/../lib/gcc/arm-eabi/4.1.2/../../../../arm-eabi/lib/ds_arm9_crt0.o
 .glue_7        0x02027e54        0x0 c:/devkitpro2007/devkitarm/bin/../lib/gcc/arm-eabi/4.1.2/crti.o
 .glue_7        0x02027e54        0x0 c:/devkitpro2007/devkitarm/bin/../lib/gcc/arm-eabi/4.1.2/crtbegin.o
 .glue_7        0x02027e54        0x0 ./SNES_global.o
 .glue_7        0x02027e54        0x0 ./apu.o
 .glue_7        0x02027e54        0x0 ./core.o
 .glue_7        0x02027e54        0x0 ./engine.o
 .glue_7        0x02027e54        0x0 ./fs.o
 .glue_7        0x02027e54        0x0 ./gui.o
 .glue_7        0x02027e54        0x0 ./intr.o
 .glue_7        0x02027e54        0x0 ./main.o
 .glue_7        0x02027e54        0x0 ./memmap.o
 .glue_7        0x02027e54        0x0 ./opcodes.o
 .glue_7        0x02027e54        0x0 ./opcodes2.o
 .glue_7        0x02027e54        0x0 ./ppu.o
 .glue_7        0x02027e54        0x0 ./snapshot.o
 .glue_7        0x02027e54        0x0 ./snes.o
 .glue_7        0x02027e54        0x0 ./touch.o
 .glue_7        0x02027e54        0x0 c:/devkitPro2007/libnds/lib\libfat.a(libfat.o)
 .glue_7        0x02027e54        0x0 c:/devkitPro2007/libnds/lib\libfat.a(partition.o)
 .glue_7        0x02027e54        0x0 c:/devkitPro2007/libnds/lib\libfat.a(disc.o)
 .glue_7        0x02027e54        0x0 c:/devkitPro2007/libnds/lib\libfat.a(io_m3cf.o)
 .glue_7        0x02027e54        0x0 c:/devkitPro2007/libnds/lib\libfat.a(io_m3sd.o)
 .glue_7        0x02027e54        0x0 c:/devkitPro2007/libnds/lib\libfat.a(io_mpcf.o)
 .glue_7        0x02027e54        0x0 c:/devkitPro2007/libnds/lib\libfat.a(io_njsd.o)
 .glue_7        0x02027e54        0x0 c:/devkitPro2007/libnds/lib\libfat.a(io_nmmc.o)
 .glue_7        0x02027e54        0x0 c:/devkitPro2007/libnds/lib\libfat.a(io_sccf.o)
 .glue_7        0x02027e54        0x0 c:/devkitPro2007/libnds/lib\libfat.a(io_scsd.o)
 .glue_7        0x02027e54        0x0 c:/devkitPro2007/libnds/lib\libfat.a(io_sd_common.o)
 .glue_7        0x02027e54        0x0 c:/devkitPro2007/libnds/lib\libfat.a(io_dldi.o)
 .glue_7        0x02027e54        0x0 c:/devkitPro2007/libnds/lib\libfat.a(io_scsd_s.o)
 .glue_7        0x02027e54        0x0 c:/devkitPro2007/libnds/lib\libfat.a(cache.o)
 .glue_7        0x02027e54        0x0 c:/devkitPro2007/libnds/lib\libfat.a(fatdir.o)
 .glue_7        0x02027e54        0x0 c:/devkitPro2007/libnds/lib\libfat.a(fatfile.o)
 .glue_7        0x02027e54        0x0 c:/devkitPro2007/libnds/lib\libfat.a(file_allocation_table.o)
 .glue_7        0x02027e54        0x0 c:/devkitPro2007/libnds/lib\libfat.a(filetime.o)
 .glue_7        0x02027e54        0x0 c:/devkitPro2007/libnds/lib\libfat.a(io_cf_common.o)
 .glue_7        0x02027e54        0x0 c:/devkitPro2007/libnds/lib\libfat.a(io_m3_common.o)
 .glue_7        0x02027e54        0x0 c:/devkitPro2007/libnds/lib\libfat.a(io_sc_common.o)
 .glue_7        0x02027e54        0x0 c:/devkitPro2007/libnds/lib\libfat.a(directory.o)
 .glue_7        0x02027e54        0x0 c:/devkitPro2007/libnds/lib\libnds9.a(console.o)
 .glue_7        0x02027e54        0x0 c:/devkitPro2007/libnds/lib\libnds9.a(initSystem.o)
 .glue_7        0x02027e54        0x0 c:/devkitPro2007/libnds/lib\libnds9.a(keys.o)
 .glue_7        0x02027e54        0x0 c:/devkitPro2007/libnds/lib\libnds9.a(video.o)
 .glue_7        0x02027e54        0x0 c:/devkitPro2007/libnds/lib\libnds9.a(card.o)
 .glue_7        0x02027e54        0x0 c:/devkitPro2007/libnds/lib\libnds9.a(interrupts.o)
 .glue_7        0x02027e54        0x0 c:/devkitPro2007/libnds/lib\libnds9.a(biosCalls.o)
 .glue_7        0x02027e54        0x0 c:/devkitPro2007/libnds/lib\libnds9.a(interruptDispatcher.o)
 .glue_7        0x02027e54        0x0 c:/devkitPro2007/libnds/lib\libnds9.a(default_font.o)
 .glue_7        0x02027e54        0x0 c:/devkitpro2007/devkitarm/bin/../lib/gcc/arm-eabi/4.1.2\libgcc.a(_udivsi3.o)
 .glue_7        0x02027e54        0x0 c:/devkitpro2007/devkitarm/bin/../lib/gcc/arm-eabi/4.1.2\libgcc.a(_divsi3.o)
 .glue_7        0x02027e54        0x0 c:/devkitpro2007/devkitarm/bin/../lib/gcc/arm-eabi/4.1.2\libgcc.a(_dvmd_tls.o)
 .glue_7        0x02027e54        0x0 c:/devkitpro2007/devkitarm/bin/../lib/gcc/arm-eabi/4.1.2/../../../../arm-eabi/lib\libc.a(lib_a-ctype_.o)
 .glue_7        0x02027e54        0x0 c:/devkitpro2007/devkitarm/bin/../lib/gcc/arm-eabi/4.1.2/../../../../arm-eabi/lib\libc.a(lib_a-fclose.o)
 .glue_7        0x02027e54        0x0 c:/devkitpro2007/devkitarm/bin/../lib/gcc/arm-eabi/4.1.2/../../../../arm-eabi/lib\libc.a(lib_a-fflush.o)
 .glue_7        0x02027e54        0x0 c:/devkitpro2007/devkitarm/bin/../lib/gcc/arm-eabi/4.1.2/../../../../arm-eabi/lib\libc.a(lib_a-findfp.o)
 .glue_7        0x02027e54        0x0 c:/devkitpro2007/devkitarm/bin/../lib/gcc/arm-eabi/4.1.2/../../../../arm-eabi/lib\libc.a(lib_a-fopen.o)
 .glue_7        0x02027e54        0x0 c:/devkitpro2007/devkitarm/bin/../lib/gcc/arm-eabi/4.1.2/../../../../arm-eabi/lib\libc.a(lib_a-fread.o)
 .glue_7        0x02027e54        0x0 c:/devkitpro2007/devkitarm/bin/../lib/gcc/arm-eabi/4.1.2/../../../../arm-eabi/lib\libc.a(lib_a-freer.o)
 .glue_7        0x02027e54        0x0 c:/devkitpro2007/devkitarm/bin/../lib/gcc/arm-eabi/4.1.2/../../../../arm-eabi/lib\libc.a(lib_a-fseek.o)
 .glue_7        0x02027e54        0x0 c:/devkitpro2007/devkitarm/bin/../lib/gcc/arm-eabi/4.1.2/../../../../arm-eabi/lib\libc.a(lib_a-fwalk.o)
 .glue_7        0x02027e54        0x0 c:/devkitpro2007/devkitarm/bin/../lib/gcc/arm-eabi/4.1.2/../../../../arm-eabi/lib\libc.a(lib_a-fwrite.o)
 .glue_7        0x02027e54        0x0 c:/devkitpro2007/devkitarm/bin/../lib/gcc/arm-eabi/4.1.2/../../../../arm-eabi/lib\libc.a(lib_a-impure.o)
 .glue_7        0x02027e54        0x0 c:/devkitpro2007/devkitarm/bin/../lib/gcc/arm-eabi/4.1.2/../../../../arm-eabi/lib\libc.a(lib_a-init.o)
 .glue_7        0x02027e54        0x0 c:/devkitpro2007/devkitarm/bin/../lib/gcc/arm-eabi/4.1.2/../../../../arm-eabi/lib\libc.a(lib_a-iprintf.o)
 .glue_7        0x02027e54        0x0 c:/devkitpro2007/devkitarm/bin/../lib/gcc/arm-eabi/4.1.2/../../../../arm-eabi/lib\libc.a(lib_a-makebuf.o)
 .glue_7        0x02027e54        0x0 c:/devkitpro2007/devkitarm/bin/../lib/gcc/arm-eabi/4.1.2/../../../../arm-eabi/lib\libc.a(lib_a-malloc.o)
 .glue_7        0x02027e54        0x0 c:/devkitpro2007/devkitarm/bin/../lib/gcc/arm-eabi/4.1.2/../../../../arm-eabi/lib\libc.a(lib_a-mallocr.o)
 .glue_7        0x02027e54        0x0 c:/devkitpro2007/devkitarm/bin/../lib/gcc/arm-eabi/4.1.2/../../../../arm-eabi/lib\libc.a(lib_a-memcpy.o)
 .glue_7        0x02027e54        0x0 c:/devkitpro2007/devkitarm/bin/../lib/gcc/arm-eabi/4.1.2/../../../../arm-eabi/lib\libc.a(lib_a-memmove.o)
 .glue_7        0x02027e54        0x0 c:/devkitpro2007/devkitarm/bin/../lib/gcc/arm-eabi/4.1.2/../../../../arm-eabi/lib\libc.a(lib_a-memset.o)
 .glue_7        0x02027e54        0x0 c:/devkitpro2007/devkitarm/bin/../lib/gcc/arm-eabi/4.1.2/../../../../arm-eabi/lib\libc.a(lib_a-mlock.o)
 .glue_7        0x02027e54        0x0 c:/devkitpro2007/devkitarm/bin/../lib/gcc/arm-eabi/4.1.2/../../../../arm-eabi/lib\libc.a(lib_a-printf.o)
 .glue_7        0x02027e54        0x0 c:/devkitpro2007/devkitarm/bin/../lib/gcc/arm-eabi/4.1.2/../../../../arm-eabi/lib\libc.a(lib_a-refill.o)
 .glue_7        0x02027e54        0x0 c:/devkitpro2007/devkitarm/bin/../lib/gcc/arm-eabi/4.1.2/../../../../arm-eabi/lib\libc.a(lib_a-setvbuf.o)
 .glue_7        0x02027e54        0x0 c:/devkitpro2007/devkitarm/bin/../lib/gcc/arm-eabi/4.1.2/../../../../arm-eabi/lib\libc.a(lib_a-siscanf.o)
 .glue_7        0x02027e54        0x0 c:/devkitpro2007/devkitarm/bin/../lib/gcc/arm-eabi/4.1.2/../../../../arm-eabi/lib\libc.a(lib_a-sprintf.o)
 .glue_7        0x02027e54        0x0 c:/devkitpro2007/devkitarm/bin/../lib/gcc/arm-eabi/4.1.2/../../../../arm-eabi/lib\libc.a(lib_a-stdio.o)
 .glue_7        0x02027e54        0x0 c:/devkitpro2007/devkitarm/bin/../lib/gcc/arm-eabi/4.1.2/../../../../arm-eabi/lib\libc.a(lib_a-strcasecmp.o)
 .glue_7        0x02027e54        0x0 c:/devkitpro2007/devkitarm/bin/../lib/gcc/arm-eabi/4.1.2/../../../../arm-eabi/lib\libc.a(lib_a-strcat.o)
 .glue_7        0x02027e54        0x0 c:/devkitpro2007/devkitarm/bin/../lib/gcc/arm-eabi/4.1.2/../../../../arm-eabi/lib\libc.a(lib_a-strchr.o)
 .glue_7        0x02027e54        0x0 c:/devkitpro2007/devkitarm/bin/../lib/gcc/arm-eabi/4.1.2/../../../../arm-eabi/lib\libc.a(lib_a-strcmp.o)
 .glue_7        0x02027e54        0x0 c:/devkitpro2007/devkitarm/bin/../lib/gcc/arm-eabi/4.1.2/../../../../arm-eabi/lib\libc.a(lib_a-strcpy.o)
 .glue_7        0x02027e54        0x0 c:/devkitpro2007/devkitarm/bin/../lib/gcc/arm-eabi/4.1.2/../../../../arm-eabi/lib\libc.a(lib_a-strlen.o)
 .glue_7        0x02027e54        0x0 c:/devkitpro2007/devkitarm/bin/../lib/gcc/arm-eabi/4.1.2/../../../../arm-eabi/lib\libc.a(lib_a-strncasecmp.o)
 .glue_7        0x02027e54        0x0 c:/devkitpro2007/devkitarm/bin/../lib/gcc/arm-eabi/4.1.2/../../../../arm-eabi/lib\libc.a(lib_a-strncmp.o)
 .glue_7        0x02027e54        0x0 c:/devkitpro2007/devkitarm/bin/../lib/gcc/arm-eabi/4.1.2/../../../../arm-eabi/lib\libc.a(lib_a-strncpy.o)
 .glue_7        0x02027e54        0x0 c:/devkitpro2007/devkitarm/bin/../lib/gcc/arm-eabi/4.1.2/../../../../arm-eabi/lib\libc.a(lib_a-strnlen.o)
 .glue_7        0x02027e54        0x0 c:/devkitpro2007/devkitarm/bin/../lib/gcc/arm-eabi/4.1.2/../../../../arm-eabi/lib\libc.a(lib_a-strpbrk.o)
 .glue_7        0x02027e54        0x0 c:/devkitpro2007/devkitarm/bin/../lib/gcc/arm-eabi/4.1.2/../../../../arm-eabi/lib\libc.a(lib_a-strrchr.o)
 .glue_7        0x02027e54        0x0 c:/devkitpro2007/devkitarm/bin/../lib/gcc/arm-eabi/4.1.2/../../../../arm-eabi/lib\libc.a(lib_a-strstr.o)
 .glue_7        0x02027e54        0x0 c:/devkitpro2007/devkitarm/bin/../lib/gcc/arm-eabi/4.1.2/../../../../arm-eabi/lib\libc.a(lib_a-strupr.o)
 .glue_7        0x02027e54        0x0 c:/devkitpro2007/devkitarm/bin/../lib/gcc/arm-eabi/4.1.2/../../../../arm-eabi/lib\libc.a(lib_a-sysstat.o)
 .glue_7        0x02027e54        0x0 c:/devkitpro2007/devkitarm/bin/../lib/gcc/arm-eabi/4.1.2/../../../../arm-eabi/lib\libc.a(lib_a-toupper.o)
 .glue_7        0x02027e54        0x0 c:/devkitpro2007/devkitarm/bin/../lib/gcc/arm-eabi/4.1.2/../../../../arm-eabi/lib\libc.a(lib_a-vfiprintf.o)
 .glue_7        0x02027e54        0x0 c:/devkitpro2007/devkitarm/bin/../lib/gcc/arm-eabi/4.1.2/../../../../arm-eabi/lib\libc.a(lib_a-vfiscanf.o)
 .glue_7        0x02027e54        0x0 c:/devkitpro2007/devkitarm/bin/../lib/gcc/arm-eabi/4.1.2/../../../../arm-eabi/lib\libc.a(lib_a-vfprintf.o)
 .glue_7        0x02027e54        0x0 c:/devkitpro2007/devkitarm/bin/../lib/gcc/arm-eabi/4.1.2/../../../../arm-eabi/lib\libc.a(lib_a-vsnprintf.o)
 .glue_7        0x02027e54        0x0 c:/devkitpro2007/devkitarm/bin/../lib/gcc/arm-eabi/4.1.2/../../../../arm-eabi/lib\libc.a(lib_a-wcrtomb.o)
 .glue_7        0x02027e54        0x0 c:/devkitpro2007/devkitarm/bin/../lib/gcc/arm-eabi/4.1.2/../../../../arm-eabi/lib\libc.a(lib_a-wcsrtombs.o)
 .glue_7        0x02027e54        0x0 c:/devkitpro2007/devkitarm/bin/../lib/gcc/arm-eabi/4.1.2/../../../../arm-eabi/lib\libc.a(lib_a-wctomb_r.o)
 .glue_7        0x02027e54        0x0 c:/devkitpro2007/devkitarm/bin/../lib/gcc/arm-eabi/4.1.2/../../../../arm-eabi/lib\libc.a(lib_a-wsetup.o)
 .glue_7        0x02027e54        0x0 c:/devkitpro2007/devkitarm/bin/../lib/gcc/arm-eabi/4.1.2/../../../../arm-eabi/lib\libc.a(lib_a-dtoa.o)
 .glue_7        0x02027e54        0x0 c:/devkitpro2007/devkitarm/bin/../lib/gcc/arm-eabi/4.1.2/../../../../arm-eabi/lib\libc.a(lib_a-flags.o)
 .glue_7        0x02027e54        0x0 c:/devkitpro2007/devkitarm/bin/../lib/gcc/arm-eabi/4.1.2/../../../../arm-eabi/lib\libc.a(lib_a-fvwrite.o)
 .glue_7        0x02027e54        0x0 c:/devkitpro2007/devkitarm/bin/../lib/gcc/arm-eabi/4.1.2/../../../../arm-eabi/lib\libc.a(lib_a-iswspace.o)
 .glue_7        0x02027e54        0x0 c:/devkitpro2007/devkitarm/bin/../lib/gcc/arm-eabi/4.1.2/../../../../arm-eabi/lib\libc.a(lib_a-locale.o)
 .glue_7        0x02027e54        0x0 c:/devkitpro2007/devkitarm/bin/../lib/gcc/arm-eabi/4.1.2/../../../../arm-eabi/lib\libc.a(lib_a-mbrtowc.o)
 .glue_7        0x02027e54        0x0 c:/devkitpro2007/devkitarm/bin/../lib/gcc/arm-eabi/4.1.2/../../../../arm-eabi/lib\libc.a(lib_a-mbtowc_r.o)
 .glue_7        0x02027e54        0x0 c:/devkitpro2007/devkitarm/bin/../lib/gcc/arm-eabi/4.1.2/../../../../arm-eabi/lib\libc.a(lib_a-memchr.o)
 .glue_7        0x02027e54        0x0 c:/devkitpro2007/devkitarm/bin/../lib/gcc/arm-eabi/4.1.2/../../../../arm-eabi/lib\libc.a(lib_a-mprec.o)
 .glue_7        0x02027e54        0x0 c:/devkitpro2007/devkitarm/bin/../lib/gcc/arm-eabi/4.1.2/../../../../arm-eabi/lib\libc.a(lib_a-reallocr.o)
 .glue_7        0x02027e54        0x0 c:/devkitpro2007/devkitarm/bin/../lib/gcc/arm-eabi/4.1.2/../../../../arm-eabi/lib\libc.a(lib_a-s_isinfd.o)
 .glue_7        0x02027e54        0x0 c:/devkitpro2007/devkitarm/bin/../lib/gcc/arm-eabi/4.1.2/../../../../arm-eabi/lib\libc.a(lib_a-s_isnand.o)
 .glue_7        0x02027e54        0x0 c:/devkitpro2007/devkitarm/bin/../lib/gcc/arm-eabi/4.1.2/../../../../arm-eabi/lib\libc.a(lib_a-sccl.o)
 .glue_7        0x02027e54        0x0 c:/devkitpro2007/devkitarm/bin/../lib/gcc/arm-eabi/4.1.2/../../../../arm-eabi/lib\libc.a(lib_a-strtol.o)
 .glue_7        0x02027e54        0x0 c:/devkitpro2007/devkitarm/bin/../lib/gcc/arm-eabi/4.1.2/../../../../arm-eabi/lib\libc.a(lib_a-strtoul.o)
 .glue_7        0x02027e54        0x0 c:/devkitpro2007/devkitarm/bin/../lib/gcc/arm-eabi/4.1.2/../../../../arm-eabi/lib\libc.a(lib_a-ungetc.o)
 .glue_7        0x02027e54        0x0 c:/devkitpro2007/devkitarm/bin/../lib/gcc/arm-eabi/4.1.2/../../../../arm-eabi/lib\libc.a(lib_a-callocr.o)
 .glue_7        0x02027e54        0x0 c:/devkitpro2007/devkitarm/bin/../lib/gcc/arm-eabi/4.1.2\libgcc.a(_addsubdf3.o)
 .glue_7        0x02027e54        0x0 c:/devkitpro2007/devkitarm/bin/../lib/gcc/arm-eabi/4.1.2\libgcc.a(_muldivdf3.o)
 .glue_7        0x02027e54        0x0 c:/devkitpro2007/devkitarm/bin/../lib/gcc/arm-eabi/4.1.2\libgcc.a(_cmpdf2.o)
 .glue_7        0x02027e54        0x0 c:/devkitpro2007/devkitarm/bin/../lib/gcc/arm-eabi/4.1.2\libgcc.a(_fixdfsi.o)
 .glue_7        0x02027e54        0x0 c:/devkitpro2007/devkitarm/bin/../lib/gcc/arm-eabi/4.1.2/../../../../arm-eabi/lib\libsysbase.a(iosupport.o)
 .glue_7        0x02027e54        0x0 c:/devkitpro2007/devkitarm/bin/../lib/gcc/arm-eabi/4.1.2/../../../../arm-eabi/lib\libsysbase.a(close.o)
 .glue_7        0x02027e54        0x0 c:/devkitpro2007/devkitarm/bin/../lib/gcc/arm-eabi/4.1.2/../../../../arm-eabi/lib\libsysbase.a(fstat.o)
 .glue_7        0x02027e54        0x0 c:/devkitpro2007/devkitarm/bin/../lib/gcc/arm-eabi/4.1.2/../../../../arm-eabi/lib\libsysbase.a(isatty.o)
 .glue_7        0x02027e54        0x0 c:/devkitpro2007/devkitarm/bin/../lib/gcc/arm-eabi/4.1.2/../../../../arm-eabi/lib\libsysbase.a(lseek.o)
 .glue_7        0x02027e54        0x0 c:/devkitpro2007/devkitarm/bin/../lib/gcc/arm-eabi/4.1.2/../../../../arm-eabi/lib\libsysbase.a(open.o)
 .glue_7        0x02027e54        0x0 c:/devkitpro2007/devkitarm/bin/../lib/gcc/arm-eabi/4.1.2/../../../../arm-eabi/lib\libsysbase.a(read.o)
 .glue_7        0x02027e54        0x0 c:/devkitpro2007/devkitarm/bin/../lib/gcc/arm-eabi/4.1.2/../../../../arm-eabi/lib\libsysbase.a(sbrk.o)
 .glue_7        0x02027e54        0x0 c:/devkitpro2007/devkitarm/bin/../lib/gcc/arm-eabi/4.1.2/../../../../arm-eabi/lib\libsysbase.a(stat.o)
 .glue_7        0x02027e54        0x0 c:/devkitpro2007/devkitarm/bin/../lib/gcc/arm-eabi/4.1.2/../../../../arm-eabi/lib\libsysbase.a(times.o)
 .glue_7        0x02027e54        0x0 c:/devkitpro2007/devkitarm/bin/../lib/gcc/arm-eabi/4.1.2/../../../../arm-eabi/lib\libsysbase.a(write.o)
 .glue_7        0x02027e54        0x0 c:/devkitpro2007/devkitarm/bin/../lib/gcc/arm-eabi/4.1.2/../../../../arm-eabi/lib\libsysbase.a(malloc_vars.o)
 .glue_7        0x02027e54        0x0 c:/devkitpro2007/devkitarm/bin/../lib/gcc/arm-eabi/4.1.2/../../../../arm-eabi/lib\libsysbase.a(chdir.o)
 .glue_7        0x02027e54        0x0 c:/devkitpro2007/devkitarm/bin/../lib/gcc/arm-eabi/4.1.2/../../../../arm-eabi/lib\libsysbase.a(dir.o)
 .glue_7        0x02027e54        0x0 c:/devkitpro2007/devkitarm/bin/../lib/gcc/arm-eabi/4.1.2/../../../../arm-eabi/lib\libsysbase.a(build_argv.o)
 .glue_7        0x02027e54        0x0 c:/devkitpro2007/devkitarm/bin/../lib/gcc/arm-eabi/4.1.2/../../../../arm-eabi/lib\libc.a(lib_a-errno.o)
 .glue_7        0x02027e54       0xc0 c:/devkitpro2007/devkitarm/bin/../lib/gcc/arm-eabi/4.1.2/crtend.o
                0x02027e84                __keysHeld_from_arm
                0x02027ed8                __vramSetBankF_from_arm
                0x02027e78                __scanKeys_from_arm
                0x02027e90                __keysDown_from_arm
                0x02027eb4                __vramSetBankC_from_arm
                0x02027f08                __consoleInitDefault_from_arm
                0x02027ecc                __vramSetBankE_from_arm
                0x02027e60                __consoleClear_from_arm
                0x02027ea8                __vramSetBankB_from_arm
                0x02027efc                __vramSetBankI_from_arm
                0x02027e9c                __vramSetBankA_from_arm
                0x02027ee4                __vramSetBankG_from_arm
                0x02027ef0                __vramSetBankH_from_arm
                0x02027ec0                __vramSetBankD_from_arm
                0x02027e6c                __swiWaitForVBlank_from_arm
                0x02027e54                __fatInitDefault_from_arm
 .glue_7        0x02027f14        0x0 c:/devkitpro2007/devkitarm/bin/../lib/gcc/arm-eabi/4.1.2/crtn.o
 *(.glue_7t)
 .glue_7t       0x02027f14        0x0 c:/devkitpro2007/devkitarm/bin/../lib/gcc/arm-eabi/4.1.2/../../../../arm-eabi/lib/ds_arm9_crt0.o
 .glue_7t       0x02027f14        0x0 c:/devkitpro2007/devkitarm/bin/../lib/gcc/arm-eabi/4.1.2/crti.o
 .glue_7t       0x02027f14        0x0 c:/devkitpro2007/devkitarm/bin/../lib/gcc/arm-eabi/4.1.2/crtbegin.o
 .glue_7t       0x02027f14        0x0 ./SNES_global.o
 .glue_7t       0x02027f14        0x0 ./apu.o
 .glue_7t       0x02027f14        0x0 ./core.o
 .glue_7t       0x02027f14        0x0 ./engine.o
 .glue_7t       0x02027f14        0x0 ./fs.o
 .glue_7t       0x02027f14        0x0 ./gui.o
 .glue_7t       0x02027f14        0x0 ./intr.o
 .glue_7t       0x02027f14        0x0 ./main.o
 .glue_7t       0x02027f14        0x0 ./memmap.o
 .glue_7t       0x02027f14        0x0 ./opcodes.o
 .glue_7t       0x02027f14        0x0 ./opcodes2.o
 .glue_7t       0x02027f14        0x0 ./ppu.o
 .glue_7t       0x02027f14        0x0 ./snapshot.o
 .glue_7t       0x02027f14        0x0 ./snes.o
 .glue_7t       0x02027f14        0x0 ./touch.o
 .glue_7t       0x02027f14        0x0 c:/devkitPro2007/libnds/lib\libfat.a(libfat.o)
 .glue_7t       0x02027f14        0x0 c:/devkitPro2007/libnds/lib\libfat.a(partition.o)
 .glue_7t       0x02027f14        0x0 c:/devkitPro2007/libnds/lib\libfat.a(disc.o)
 .glue_7t       0x02027f14        0x0 c:/devkitPro2007/libnds/lib\libfat.a(io_m3cf.o)
 .glue_7t       0x02027f14        0x0 c:/devkitPro2007/libnds/lib\libfat.a(io_m3sd.o)
 .glue_7t       0x02027f14        0x0 c:/devkitPro2007/libnds/lib\libfat.a(io_mpcf.o)
 .glue_7t       0x02027f14        0x0 c:/devkitPro2007/libnds/lib\libfat.a(io_njsd.o)
 .glue_7t       0x02027f14        0x0 c:/devkitPro2007/libnds/lib\libfat.a(io_nmmc.o)
 .glue_7t       0x02027f14        0x0 c:/devkitPro2007/libnds/lib\libfat.a(io_sccf.o)
 .glue_7t       0x02027f14        0x0 c:/devkitPro2007/libnds/lib\libfat.a(io_scsd.o)
 .glue_7t       0x02027f14        0x0 c:/devkitPro2007/libnds/lib\libfat.a(io_sd_common.o)
 .glue_7t       0x02027f14        0x0 c:/devkitPro2007/libnds/lib\libfat.a(io_dldi.o)
 .glue_7t       0x02027f14        0x0 c:/devkitPro2007/libnds/lib\libfat.a(io_scsd_s.o)
 .glue_7t       0x02027f14        0x0 c:/devkitPro2007/libnds/lib\libfat.a(cache.o)
 .glue_7t       0x02027f14        0x0 c:/devkitPro2007/libnds/lib\libfat.a(fatdir.o)
 .glue_7t       0x02027f14        0x0 c:/devkitPro2007/libnds/lib\libfat.a(fatfile.o)
 .glue_7t       0x02027f14        0x0 c:/devkitPro2007/libnds/lib\libfat.a(file_allocation_table.o)
 .glue_7t       0x02027f14        0x0 c:/devkitPro2007/libnds/lib\libfat.a(filetime.o)
 .glue_7t       0x02027f14        0x0 c:/devkitPro2007/libnds/lib\libfat.a(io_cf_common.o)
 .glue_7t       0x02027f14        0x0 c:/devkitPro2007/libnds/lib\libfat.a(io_m3_common.o)
 .glue_7t       0x02027f14        0x0 c:/devkitPro2007/libnds/lib\libfat.a(io_sc_common.o)
 .glue_7t       0x02027f14        0x0 c:/devkitPro2007/libnds/lib\libfat.a(directory.o)
 .glue_7t       0x02027f14        0x0 c:/devkitPro2007/libnds/lib\libnds9.a(console.o)
 .glue_7t       0x02027f14        0x0 c:/devkitPro2007/libnds/lib\libnds9.a(initSystem.o)
 .glue_7t       0x02027f14        0x0 c:/devkitPro2007/libnds/lib\libnds9.a(keys.o)
 .glue_7t       0x02027f14        0x0 c:/devkitPro2007/libnds/lib\libnds9.a(video.o)
 .glue_7t       0x02027f14        0x0 c:/devkitPro2007/libnds/lib\libnds9.a(card.o)
 .glue_7t       0x02027f14        0x0 c:/devkitPro2007/libnds/lib\libnds9.a(interrupts.o)
 .glue_7t       0x02027f14        0x0 c:/devkitPro2007/libnds/lib\libnds9.a(biosCalls.o)
 .glue_7t       0x02027f14        0x0 c:/devkitPro2007/libnds/lib\libnds9.a(interruptDispatcher.o)
 .glue_7t       0x02027f14        0x0 c:/devkitPro2007/libnds/lib\libnds9.a(default_font.o)
 .glue_7t       0x02027f14        0x0 c:/devkitpro2007/devkitarm/bin/../lib/gcc/arm-eabi/4.1.2\libgcc.a(_udivsi3.o)
 .glue_7t       0x02027f14        0x0 c:/devkitpro2007/devkitarm/bin/../lib/gcc/arm-eabi/4.1.2\libgcc.a(_divsi3.o)
 .glue_7t       0x02027f14        0x0 c:/devkitpro2007/devkitarm/bin/../lib/gcc/arm-eabi/4.1.2\libgcc.a(_dvmd_tls.o)
 .glue_7t       0x02027f14        0x0 c:/devkitpro2007/devkitarm/bin/../lib/gcc/arm-eabi/4.1.2/../../../../arm-eabi/lib\libc.a(lib_a-ctype_.o)
 .glue_7t       0x02027f14        0x0 c:/devkitpro2007/devkitarm/bin/../lib/gcc/arm-eabi/4.1.2/../../../../arm-eabi/lib\libc.a(lib_a-fclose.o)
 .glue_7t       0x02027f14        0x0 c:/devkitpro2007/devkitarm/bin/../lib/gcc/arm-eabi/4.1.2/../../../../arm-eabi/lib\libc.a(lib_a-fflush.o)
 .glue_7t       0x02027f14        0x0 c:/devkitpro2007/devkitarm/bin/../lib/gcc/arm-eabi/4.1.2/../../../../arm-eabi/lib\libc.a(lib_a-findfp.o)
 .glue_7t       0x02027f14        0x0 c:/devkitpro2007/devkitarm/bin/../lib/gcc/arm-eabi/4.1.2/../../../../arm-eabi/lib\libc.a(lib_a-fopen.o)
 .glue_7t       0x02027f14        0x0 c:/devkitpro2007/devkitarm/bin/../lib/gcc/arm-eabi/4.1.2/../../../../arm-eabi/lib\libc.a(lib_a-fread.o)
 .glue_7t       0x02027f14        0x0 c:/devkitpro2007/devkitarm/bin/../lib/gcc/arm-eabi/4.1.2/../../../../arm-eabi/lib\libc.a(lib_a-freer.o)
 .glue_7t       0x02027f14        0x0 c:/devkitpro2007/devkitarm/bin/../lib/gcc/arm-eabi/4.1.2/../../../../arm-eabi/lib\libc.a(lib_a-fseek.o)
 .glue_7t       0x02027f14        0x0 c:/devkitpro2007/devkitarm/bin/../lib/gcc/arm-eabi/4.1.2/../../../../arm-eabi/lib\libc.a(lib_a-fwalk.o)
 .glue_7t       0x02027f14        0x0 c:/devkitpro2007/devkitarm/bin/../lib/gcc/arm-eabi/4.1.2/../../../../arm-eabi/lib\libc.a(lib_a-fwrite.o)
 .glue_7t       0x02027f14        0x0 c:/devkitpro2007/devkitarm/bin/../lib/gcc/arm-eabi/4.1.2/../../../../arm-eabi/lib\libc.a(lib_a-impure.o)
 .glue_7t       0x02027f14        0x0 c:/devkitpro2007/devkitarm/bin/../lib/gcc/arm-eabi/4.1.2/../../../../arm-eabi/lib\libc.a(lib_a-init.o)
 .glue_7t       0x02027f14        0x0 c:/devkitpro2007/devkitarm/bin/../lib/gcc/arm-eabi/4.1.2/../../../../arm-eabi/lib\libc.a(lib_a-iprintf.o)
 .glue_7t       0x02027f14        0x0 c:/devkitpro2007/devkitarm/bin/../lib/gcc/arm-eabi/4.1.2/../../../../arm-eabi/lib\libc.a(lib_a-makebuf.o)
 .glue_7t       0x02027f14        0x0 c:/devkitpro2007/devkitarm/bin/../lib/gcc/arm-eabi/4.1.2/../../../../arm-eabi/lib\libc.a(lib_a-malloc.o)
 .glue_7t       0x02027f14        0x0 c:/devkitpro2007/devkitarm/bin/../lib/gcc/arm-eabi/4.1.2/../../../../arm-eabi/lib\libc.a(lib_a-mallocr.o)
 .glue_7t       0x02027f14        0x0 c:/devkitpro2007/devkitarm/bin/../lib/gcc/arm-eabi/4.1.2/../../../../arm-eabi/lib\libc.a(lib_a-memcpy.o)
 .glue_7t       0x02027f14        0x0 c:/devkitpro2007/devkitarm/bin/../lib/gcc/arm-eabi/4.1.2/../../../../arm-eabi/lib\libc.a(lib_a-memmove.o)
 .glue_7t       0x02027f14        0x0 c:/devkitpro2007/devkitarm/bin/../lib/gcc/arm-eabi/4.1.2/../../../../arm-eabi/lib\libc.a(lib_a-memset.o)
 .glue_7t       0x02027f14        0x0 c:/devkitpro2007/devkitarm/bin/../lib/gcc/arm-eabi/4.1.2/../../../../arm-eabi/lib\libc.a(lib_a-mlock.o)
 .glue_7t       0x02027f14        0x0 c:/devkitpro2007/devkitarm/bin/../lib/gcc/arm-eabi/4.1.2/../../../../arm-eabi/lib\libc.a(lib_a-printf.o)
 .glue_7t       0x02027f14        0x0 c:/devkitpro2007/devkitarm/bin/../lib/gcc/arm-eabi/4.1.2/../../../../arm-eabi/lib\libc.a(lib_a-refill.o)
 .glue_7t       0x02027f14        0x0 c:/devkitpro2007/devkitarm/bin/../lib/gcc/arm-eabi/4.1.2/../../../../arm-eabi/lib\libc.a(lib_a-setvbuf.o)
 .glue_7t       0x02027f14        0x0 c:/devkitpro2007/devkitarm/bin/../lib/gcc/arm-eabi/4.1.2/../../../../arm-eabi/lib\libc.a(lib_a-siscanf.o)
 .glue_7t       0x02027f14        0x0 c:/devkitpro2007/devkitarm/bin/../lib/gcc/arm-eabi/4.1.2/../../../../arm-eabi/lib\libc.a(lib_a-sprintf.o)
 .glue_7t       0x02027f14        0x0 c:/devkitpro2007/devkitarm/bin/../lib/gcc/arm-eabi/4.1.2/../../../../arm-eabi/lib\libc.a(lib_a-stdio.o)
 .glue_7t       0x02027f14        0x0 c:/devkitpro2007/devkitarm/bin/../lib/gcc/arm-eabi/4.1.2/../../../../arm-eabi/lib\libc.a(lib_a-strcasecmp.o)
 .glue_7t       0x02027f14        0x0 c:/devkitpro2007/devkitarm/bin/../lib/gcc/arm-eabi/4.1.2/../../../../arm-eabi/lib\libc.a(lib_a-strcat.o)
 .glue_7t       0x02027f14        0x0 c:/devkitpro2007/devkitarm/bin/../lib/gcc/arm-eabi/4.1.2/../../../../arm-eabi/lib\libc.a(lib_a-strchr.o)
 .glue_7t       0x02027f14        0x0 c:/devkitpro2007/devkitarm/bin/../lib/gcc/arm-eabi/4.1.2/../../../../arm-eabi/lib\libc.a(lib_a-strcmp.o)
 .glue_7t       0x02027f14        0x0 c:/devkitpro2007/devkitarm/bin/../lib/gcc/arm-eabi/4.1.2/../../../../arm-eabi/lib\libc.a(lib_a-strcpy.o)
 .glue_7t       0x02027f14        0x0 c:/devkitpro2007/devkitarm/bin/../lib/gcc/arm-eabi/4.1.2/../../../../arm-eabi/lib\libc.a(lib_a-strlen.o)
 .glue_7t       0x02027f14        0x0 c:/devkitpro2007/devkitarm/bin/../lib/gcc/arm-eabi/4.1.2/../../../../arm-eabi/lib\libc.a(lib_a-strncasecmp.o)
 .glue_7t       0x02027f14        0x0 c:/devkitpro2007/devkitarm/bin/../lib/gcc/arm-eabi/4.1.2/../../../../arm-eabi/lib\libc.a(lib_a-strncmp.o)
 .glue_7t       0x02027f14        0x0 c:/devkitpro2007/devkitarm/bin/../lib/gcc/arm-eabi/4.1.2/../../../../arm-eabi/lib\libc.a(lib_a-strncpy.o)
 .glue_7t       0x02027f14        0x0 c:/devkitpro2007/devkitarm/bin/../lib/gcc/arm-eabi/4.1.2/../../../../arm-eabi/lib\libc.a(lib_a-strnlen.o)
 .glue_7t       0x02027f14        0x0 c:/devkitpro2007/devkitarm/bin/../lib/gcc/arm-eabi/4.1.2/../../../../arm-eabi/lib\libc.a(lib_a-strpbrk.o)
 .glue_7t       0x02027f14        0x0 c:/devkitpro2007/devkitarm/bin/../lib/gcc/arm-eabi/4.1.2/../../../../arm-eabi/lib\libc.a(lib_a-strrchr.o)
 .glue_7t       0x02027f14        0x0 c:/devkitpro2007/devkitarm/bin/../lib/gcc/arm-eabi/4.1.2/../../../../arm-eabi/lib\libc.a(lib_a-strstr.o)
 .glue_7t       0x02027f14        0x0 c:/devkitpro2007/devkitarm/bin/../lib/gcc/arm-eabi/4.1.2/../../../../arm-eabi/lib\libc.a(lib_a-strupr.o)
 .glue_7t       0x02027f14        0x0 c:/devkitpro2007/devkitarm/bin/../lib/gcc/arm-eabi/4.1.2/../../../../arm-eabi/lib\libc.a(lib_a-sysstat.o)
 .glue_7t       0x02027f14        0x0 c:/devkitpro2007/devkitarm/bin/../lib/gcc/arm-eabi/4.1.2/../../../../arm-eabi/lib\libc.a(lib_a-toupper.o)
 .glue_7t       0x02027f14        0x0 c:/devkitpro2007/devkitarm/bin/../lib/gcc/arm-eabi/4.1.2/../../../../arm-eabi/lib\libc.a(lib_a-vfiprintf.o)
 .glue_7t       0x02027f14        0x0 c:/devkitpro2007/devkitarm/bin/../lib/gcc/arm-eabi/4.1.2/../../../../arm-eabi/lib\libc.a(lib_a-vfiscanf.o)
 .glue_7t       0x02027f14        0x0 c:/devkitpro2007/devkitarm/bin/../lib/gcc/arm-eabi/4.1.2/../../../../arm-eabi/lib\libc.a(lib_a-vfprintf.o)
 .glue_7t       0x02027f14        0x0 c:/devkitpro2007/devkitarm/bin/../lib/gcc/arm-eabi/4.1.2/../../../../arm-eabi/lib\libc.a(lib_a-vsnprintf.o)
 .glue_7t       0x02027f14        0x0 c:/devkitpro2007/devkitarm/bin/../lib/gcc/arm-eabi/4.1.2/../../../../arm-eabi/lib\libc.a(lib_a-wcrtomb.o)
 .glue_7t       0x02027f14        0x0 c:/devkitpro2007/devkitarm/bin/../lib/gcc/arm-eabi/4.1.2/../../../../arm-eabi/lib\libc.a(lib_a-wcsrtombs.o)
 .glue_7t       0x02027f14        0x0 c:/devkitpro2007/devkitarm/bin/../lib/gcc/arm-eabi/4.1.2/../../../../arm-eabi/lib\libc.a(lib_a-wctomb_r.o)
 .glue_7t       0x02027f14        0x0 c:/devkitpro2007/devkitarm/bin/../lib/gcc/arm-eabi/4.1.2/../../../../arm-eabi/lib\libc.a(lib_a-wsetup.o)
 .glue_7t       0x02027f14        0x0 c:/devkitpro2007/devkitarm/bin/../lib/gcc/arm-eabi/4.1.2/../../../../arm-eabi/lib\libc.a(lib_a-dtoa.o)
 .glue_7t       0x02027f14        0x0 c:/devkitpro2007/devkitarm/bin/../lib/gcc/arm-eabi/4.1.2/../../../../arm-eabi/lib\libc.a(lib_a-flags.o)
 .glue_7t       0x02027f14        0x0 c:/devkitpro2007/devkitarm/bin/../lib/gcc/arm-eabi/4.1.2/../../../../arm-eabi/lib\libc.a(lib_a-fvwrite.o)
 .glue_7t       0x02027f14        0x0 c:/devkitpro2007/devkitarm/bin/../lib/gcc/arm-eabi/4.1.2/../../../../arm-eabi/lib\libc.a(lib_a-iswspace.o)
 .glue_7t       0x02027f14        0x0 c:/devkitpro2007/devkitarm/bin/../lib/gcc/arm-eabi/4.1.2/../../../../arm-eabi/lib\libc.a(lib_a-locale.o)
 .glue_7t       0x02027f14        0x0 c:/devkitpro2007/devkitarm/bin/../lib/gcc/arm-eabi/4.1.2/../../../../arm-eabi/lib\libc.a(lib_a-mbrtowc.o)
 .glue_7t       0x02027f14        0x0 c:/devkitpro2007/devkitarm/bin/../lib/gcc/arm-eabi/4.1.2/../../../../arm-eabi/lib\libc.a(lib_a-mbtowc_r.o)
 .glue_7t       0x02027f14        0x0 c:/devkitpro2007/devkitarm/bin/../lib/gcc/arm-eabi/4.1.2/../../../../arm-eabi/lib\libc.a(lib_a-memchr.o)
 .glue_7t       0x02027f14        0x0 c:/devkitpro2007/devkitarm/bin/../lib/gcc/arm-eabi/4.1.2/../../../../arm-eabi/lib\libc.a(lib_a-mprec.o)
 .glue_7t       0x02027f14        0x0 c:/devkitpro2007/devkitarm/bin/../lib/gcc/arm-eabi/4.1.2/../../../../arm-eabi/lib\libc.a(lib_a-reallocr.o)
 .glue_7t       0x02027f14        0x0 c:/devkitpro2007/devkitarm/bin/../lib/gcc/arm-eabi/4.1.2/../../../../arm-eabi/lib\libc.a(lib_a-s_isinfd.o)
 .glue_7t       0x02027f14        0x0 c:/devkitpro2007/devkitarm/bin/../lib/gcc/arm-eabi/4.1.2/../../../../arm-eabi/lib\libc.a(lib_a-s_isnand.o)
 .glue_7t       0x02027f14        0x0 c:/devkitpro2007/devkitarm/bin/../lib/gcc/arm-eabi/4.1.2/../../../../arm-eabi/lib\libc.a(lib_a-sccl.o)
 .glue_7t       0x02027f14        0x0 c:/devkitpro2007/devkitarm/bin/../lib/gcc/arm-eabi/4.1.2/../../../../arm-eabi/lib\libc.a(lib_a-strtol.o)
 .glue_7t       0x02027f14        0x0 c:/devkitpro2007/devkitarm/bin/../lib/gcc/arm-eabi/4.1.2/../../../../arm-eabi/lib\libc.a(lib_a-strtoul.o)
 .glue_7t       0x02027f14        0x0 c:/devkitpro2007/devkitarm/bin/../lib/gcc/arm-eabi/4.1.2/../../../../arm-eabi/lib\libc.a(lib_a-ungetc.o)
 .glue_7t       0x02027f14        0x0 c:/devkitpro2007/devkitarm/bin/../lib/gcc/arm-eabi/4.1.2/../../../../arm-eabi/lib\libc.a(lib_a-callocr.o)
 .glue_7t       0x02027f14        0x0 c:/devkitpro2007/devkitarm/bin/../lib/gcc/arm-eabi/4.1.2\libgcc.a(_addsubdf3.o)
 .glue_7t       0x02027f14        0x0 c:/devkitpro2007/devkitarm/bin/../lib/gcc/arm-eabi/4.1.2\libgcc.a(_muldivdf3.o)
 .glue_7t       0x02027f14        0x0 c:/devkitpro2007/devkitarm/bin/../lib/gcc/arm-eabi/4.1.2\libgcc.a(_cmpdf2.o)
 .glue_7t       0x02027f14        0x0 c:/devkitpro2007/devkitarm/bin/../lib/gcc/arm-eabi/4.1.2\libgcc.a(_fixdfsi.o)
 .glue_7t       0x02027f14        0x0 c:/devkitpro2007/devkitarm/bin/../lib/gcc/arm-eabi/4.1.2/../../../../arm-eabi/lib\libsysbase.a(iosupport.o)
 .glue_7t       0x02027f14        0x0 c:/devkitpro2007/devkitarm/bin/../lib/gcc/arm-eabi/4.1.2/../../../../arm-eabi/lib\libsysbase.a(close.o)
 .glue_7t       0x02027f14        0x0 c:/devkitpro2007/devkitarm/bin/../lib/gcc/arm-eabi/4.1.2/../../../../arm-eabi/lib\libsysbase.a(fstat.o)
 .glue_7t       0x02027f14        0x0 c:/devkitpro2007/devkitarm/bin/../lib/gcc/arm-eabi/4.1.2/../../../../arm-eabi/lib\libsysbase.a(isatty.o)
 .glue_7t       0x02027f14        0x0 c:/devkitpro2007/devkitarm/bin/../lib/gcc/arm-eabi/4.1.2/../../../../arm-eabi/lib\libsysbase.a(lseek.o)
 .glue_7t       0x02027f14        0x0 c:/devkitpro2007/devkitarm/bin/../lib/gcc/arm-eabi/4.1.2/../../../../arm-eabi/lib\libsysbase.a(open.o)
 .glue_7t       0x02027f14        0x0 c:/devkitpro2007/devkitarm/bin/../lib/gcc/arm-eabi/4.1.2/../../../../arm-eabi/lib\libsysbase.a(read.o)
 .glue_7t       0x02027f14        0x0 c:/devkitpro2007/devkitarm/bin/../lib/gcc/arm-eabi/4.1.2/../../../../arm-eabi/lib\libsysbase.a(sbrk.o)
 .glue_7t       0x02027f14        0x0 c:/devkitpro2007/devkitarm/bin/../lib/gcc/arm-eabi/4.1.2/../../../../arm-eabi/lib\libsysbase.a(stat.o)
 .glue_7t       0x02027f14        0x0 c:/devkitpro2007/devkitarm/bin/../lib/gcc/arm-eabi/4.1.2/../../../../arm-eabi/lib\libsysbase.a(times.o)
 .glue_7t       0x02027f14        0x0 c:/devkitpro2007/devkitarm/bin/../lib/gcc/arm-eabi/4.1.2/../../../../arm-eabi/lib\libsysbase.a(write.o)
 .glue_7t       0x02027f14        0x0 c:/devkitpro2007/devkitarm/bin/../lib/gcc/arm-eabi/4.1.2/../../../../arm-eabi/lib\libsysbase.a(malloc_vars.o)
 .glue_7t       0x02027f14        0x0 c:/devkitpro2007/devkitarm/bin/../lib/gcc/arm-eabi/4.1.2/../../../../arm-eabi/lib\libsysbase.a(chdir.o)
 .glue_7t       0x02027f14        0x0 c:/devkitpro2007/devkitarm/bin/../lib/gcc/arm-eabi/4.1.2/../../../../arm-eabi/lib\libsysbase.a(dir.o)
 .glue_7t       0x02027f14        0x0 c:/devkitpro2007/devkitarm/bin/../lib/gcc/arm-eabi/4.1.2/../../../../arm-eabi/lib\libsysbase.a(build_argv.o)
 .glue_7t       0x02027f14        0x0 c:/devkitpro2007/devkitarm/bin/../lib/gcc/arm-eabi/4.1.2/../../../../arm-eabi/lib\libc.a(lib_a-errno.o)
 .glue_7t       0x02027f14       0xc8 c:/devkitpro2007/devkitarm/bin/../lib/gcc/arm-eabi/4.1.2/crtend.o
                0x02027f44                __memset_from_thumb
                0x02027f98                __strncasecmp_change_to_arm
                0x02027f74                __strrchr_from_thumb
                0x02027f58                ____aeabi_uidiv_change_to_arm
                0x02027f48                __memset_change_to_arm
                0x02027fbc                ____aeabi_idivmod_from_thumb
                0x02027f64                ___SCSD_writeData_s_from_thumb
                0x02027f6c                __strncpy_from_thumb
                0x02027f50                __malloc_change_to_arm
                0x02027f28                __strlen_change_to_arm
                0x02027fb4                ____aeabi_idiv_from_thumb
                0x02027f30                __strchr_change_to_arm
                0x02027f5c                __memcpy_from_thumb
                0x02027f54                ____aeabi_uidiv_from_thumb
                0x02027f20                __chdir_change_to_arm
                0x02027fb0                __strupr_change_to_arm
                0x02027f38                __strncmp_change_to_arm
                0x02027f94                __strncasecmp_from_thumb
                0x02027fac                __strupr_from_thumb
                0x02027f90                __strcasecmp_change_to_arm
                0x02027f7c                ____aeabi_uidivmod_from_thumb
                0x02027fc8                __iprintf_change_to_arm
                0x02027fa8                __memmove_change_to_arm
                0x02027f2c                __strchr_from_thumb
                0x02027fd8                __siscanf_change_to_arm
                0x02027f88                __strnlen_change_to_arm
                0x02027f14                __AddDevice_from_thumb
                0x02027fc4                __iprintf_from_thumb
                0x02027fa4                __memmove_from_thumb
                0x02027f1c                __chdir_from_thumb
                0x02027f78                __strrchr_change_to_arm
                0x02027f9c                __strpbrk_from_thumb
                0x02027f80                ____aeabi_uidivmod_change_to_arm
                0x02027f18                __AddDevice_change_to_arm
                0x02027f8c                __strcasecmp_from_thumb
                0x02027f84                __strnlen_from_thumb
                0x02027fd4                __siscanf_from_thumb
                0x02027f68                ___SCSD_writeData_s_change_to_arm
                0x02027fd0                __setvbuf_change_to_arm
                0x02027f40                __free_change_to_arm
                0x02027f24                __strlen_from_thumb
                0x02027f4c                __malloc_from_thumb
                0x02027fc0                ____aeabi_idivmod_change_to_arm
                0x02027f60                __memcpy_change_to_arm
                0x02027fa0                __strpbrk_change_to_arm
                0x02027fcc                __setvbuf_from_thumb
                0x02027f70                __strncpy_change_to_arm
                0x02027f34                __strncmp_from_thumb
                0x02027fb8                ____aeabi_idiv_change_to_arm
                0x02027f3c                __free_from_thumb
 .glue_7t       0x02027fdc        0x0 c:/devkitpro2007/devkitarm/bin/../lib/gcc/arm-eabi/4.1.2/crtn.o
                0x02027fdc                . = ALIGN (0x4)

.fini           0x02027fdc       0x18
 *(.fini)
 .fini          0x02027fdc        0xc c:/devkitpro2007/devkitarm/bin/../lib/gcc/arm-eabi/4.1.2/crti.o
                0x02027fdc                _fini
 .fini          0x02027fe8        0xc c:/devkitpro2007/devkitarm/bin/../lib/gcc/arm-eabi/4.1.2/crtn.o
                0x02027ff4                __text_end = .

.rodata         0x02027ff8     0x38ec
 *(.rodata)
 .rodata        0x02027ff8        0xc ./main.o
 .rodata        0x02028004        0xc ./snes.o
 .rodata        0x02028010       0x4c c:/devkitPro2007/libnds/lib\libfat.a(libfat.o)
                0x02028010                dotab_fat
 .rodata        0x0202805c       0x44 c:/devkitPro2007/libnds/lib\libfat.a(io_m3cf.o)
                0x0202805c                _io_m3cf
 .rodata        0x020280a0       0x20 c:/devkitPro2007/libnds/lib\libfat.a(io_m3sd.o)
                0x020280a0                _io_m3sd
 .rodata        0x020280c0       0x44 c:/devkitPro2007/libnds/lib\libfat.a(io_mpcf.o)
                0x020280c0                _io_mpcf
 .rodata        0x02028104       0x30 c:/devkitPro2007/libnds/lib\libfat.a(io_njsd.o)
                0x02028104                _io_njsd
 .rodata        0x02028134       0x20 c:/devkitPro2007/libnds/lib\libfat.a(io_nmmc.o)
                0x02028134                _io_nmmc
 .rodata        0x02028154       0x44 c:/devkitPro2007/libnds/lib\libfat.a(io_sccf.o)
                0x02028154                _io_sccf
 .rodata        0x02028198       0x20 c:/devkitPro2007/libnds/lib\libfat.a(io_scsd.o)
                0x02028198                _io_scsd
 .rodata        0x020281b8       0x34 c:/devkitPro2007/libnds/lib\libfat.a(directory.o)
                0x020281b8                LFN_offset_table
 .rodata        0x020281ec      0x120 c:/devkitPro2007/libnds/lib\libnds9.a(console.o)
                0x020282c0                dotab_stdout
 .rodata        0x0202830c        0x8 c:/devkitPro2007/libnds/lib\libnds9.a(card.o)
 .rodata        0x02028314     0x2004 c:/devkitPro2007/libnds/lib\libnds9.a(default_font.o)
                0x0202a318                default_font_bin_end
                0x02028314                default_font_bin_size
                0x02028318                default_font_bin
 .rodata        0x0202a318      0x101 c:/devkitpro2007/devkitarm/bin/../lib/gcc/arm-eabi/4.1.2/../../../../arm-eabi/lib\libc.a(lib_a-ctype_.o)
                0x0202a318                _ctype_
 *fill*         0x0202a419        0x3 ff
 .rodata        0x0202a41c        0x4 c:/devkitpro2007/devkitarm/bin/../lib/gcc/arm-eabi/4.1.2/../../../../arm-eabi/lib\libc.a(lib_a-impure.o)
                0x0202a41c                _global_impure_ptr
 .rodata        0x0202a420       0x20 c:/devkitpro2007/devkitarm/bin/../lib/gcc/arm-eabi/4.1.2/../../../../arm-eabi/lib\libc.a(lib_a-vfiprintf.o)
 .rodata        0x0202a440       0x22 c:/devkitpro2007/devkitarm/bin/../lib/gcc/arm-eabi/4.1.2/../../../../arm-eabi/lib\libc.a(lib_a-vfiscanf.o)
 .rodata        0x0202a462       0x20 c:/devkitpro2007/devkitarm/bin/../lib/gcc/arm-eabi/4.1.2/../../../../arm-eabi/lib\libc.a(lib_a-vfprintf.o)
 *fill*         0x0202a482        0x2 ff
 .rodata        0x0202a484       0x34 c:/devkitpro2007/devkitarm/bin/../lib/gcc/arm-eabi/4.1.2/../../../../arm-eabi/lib\libc.a(lib_a-locale.o)
 .rodata        0x0202a4b8      0x128 c:/devkitpro2007/devkitarm/bin/../lib/gcc/arm-eabi/4.1.2/../../../../arm-eabi/lib\libc.a(lib_a-mprec.o)
                0x0202a5a8                __mprec_tinytens
                0x0202a4b8                __mprec_tens
                0x0202a580                __mprec_bigtens
 .rodata        0x0202a5e0       0x50 c:/devkitpro2007/devkitarm/bin/../lib/gcc/arm-eabi/4.1.2/../../../../arm-eabi/lib\libsysbase.a(iosupport.o)
                0x0202a5e0                dotab_stdnull
 .rodata        0x0202a630        0xc c:/devkitpro2007/devkitarm/bin/../lib/gcc/arm-eabi/4.1.2/../../../../arm-eabi/lib\libsysbase.a(chdir.o)
                0x0202a630                DIRECTORY_SEPARATOR
                0x0202a634                DIRECTORY_THIS
                0x0202a638                DIRECTORY_PARENT
 *all.rodata*(*)
 *(.roda)
 *(.rodata.*)
 .rodata.str1.4
                0x0202a63c       0x15 ./core.o
                                 0x18 (size before relaxing)
 *fill*         0x0202a651        0x3 ff
 .rodata.str1.4
                0x0202a654      0xcb1 ./engine.o
                                0xcbc (size before relaxing)
 *fill*         0x0202b305        0x3 ff
 .rodata.str1.4
                0x0202b308       0xd7 ./fs.o
                                 0xdc (size before relaxing)
 *fill*         0x0202b3df        0x1 ff
 .rodata.str1.4
                0x0202b3e0       0x63 ./gui.o
                                 0x68 (size before relaxing)
 *fill*         0x0202b443        0x1 ff
 .rodata.str1.4
                0x0202b444      0x269 ./main.o
                                0x28c (size before relaxing)
 *fill*         0x0202b6ad        0x3 ff
 .rodata.str1.4
                0x0202b6b0       0x92 ./memmap.o
                                 0x94 (size before relaxing)
 *fill*         0x0202b742        0x2 ff
 .rodata.str1.4
                0x0202b744       0x57 ./ppu.o
                                 0x58 (size before relaxing)
 *fill*         0x0202b79b        0x1 ff
 .rodata.str1.4
                0x0202b79c       0x32 ./snapshot.o
                                 0x3c (size before relaxing)
 *fill*         0x0202b7ce        0x2 ff
 .rodata.str1.4
                0x0202b7d0        0xe ./snes.o
                                 0x10 (size before relaxing)
 *fill*         0x0202b7de        0x2 ff
 .rodata.str1.4
                0x0202b7e0        0xc c:/devkitPro2007/libnds/lib\libfat.a(libfat.o)
 .rodata.str1.4
                0x00000000        0x4 c:/devkitPro2007/libnds/lib\libfat.a(partition.o)
 .rodata.str1.4
                0x0202b7ec       0x23 c:/devkitPro2007/libnds/lib\libfat.a(directory.o)
                                 0x28 (size before relaxing)
 *fill*         0x0202b80f        0x1 ff
 .rodata.str1.4
                0x0202b810       0x2c c:/devkitPro2007/libnds/lib\libnds9.a(console.o)
 .rodata.str1.4
                0x0202b83c        0x2 c:/devkitpro2007/devkitarm/bin/../lib/gcc/arm-eabi/4.1.2/../../../../arm-eabi/lib\libc.a(lib_a-impure.o)
                                  0x4 (size before relaxing)
 *fill*         0x0202b83e        0x2 ff
 .rodata.str1.4
                0x0202b840       0x4a c:/devkitpro2007/devkitarm/bin/../lib/gcc/arm-eabi/4.1.2/../../../../arm-eabi/lib\libc.a(lib_a-vfiprintf.o)
                                 0x4c (size before relaxing)
 *fill*         0x0202b88a        0x2 ff
 .rodata.str1.4
                0x0202b88c       0x12 c:/devkitpro2007/devkitarm/bin/../lib/gcc/arm-eabi/4.1.2/../../../../arm-eabi/lib\libc.a(lib_a-vfprintf.o)
                                 0x64 (size before relaxing)
 *fill*         0x0202b89e        0x2 ff
 .rodata.str1.4
                0x0202b8a0       0x1e c:/devkitpro2007/devkitarm/bin/../lib/gcc/arm-eabi/4.1.2/../../../../arm-eabi/lib\libc.a(lib_a-wctomb_r.o)
                                 0x20 (size before relaxing)
 *fill*         0x0202b8be        0x2 ff
 .rodata.str1.4
                0x0202b8c0       0x10 c:/devkitpro2007/devkitarm/bin/../lib/gcc/arm-eabi/4.1.2/../../../../arm-eabi/lib\libc.a(lib_a-dtoa.o)
                                 0x14 (size before relaxing)
 .rodata.str1.4
                0x0202b8d0        0xb c:/devkitpro2007/devkitarm/bin/../lib/gcc/arm-eabi/4.1.2/../../../../arm-eabi/lib\libc.a(lib_a-locale.o)
                                 0x18 (size before relaxing)
 .rodata.str1.4
                0x00000000        0x4 c:/devkitpro2007/devkitarm/bin/../lib/gcc/arm-eabi/4.1.2/../../../../arm-eabi/lib\libc.a(lib_a-mbrtowc.o)
 *fill*         0x0202b8db        0x1 ff
 .rodata.str1.4
                0x0202b8dc        0x8 c:/devkitpro2007/devkitarm/bin/../lib/gcc/arm-eabi/4.1.2/../../../../arm-eabi/lib\libsysbase.a(iosupport.o)
 *(.gnu.linkonce.r*)
                0x0202b8e4                . = ALIGN (0x4)

.ARM.extab
 *(.ARM.extab* .gnu.linkonce.armextab.*)
                0x0202b8e4                __exidx_start = .

.ARM.exidx
 *(.ARM.exidx* .gnu.linkonce.armexidx.*)
                0x0202b8e4                __exidx_end = .
                0x0202b8e4                . = ALIGN (0x4)
                0x0202b8e4                PROVIDE (__preinit_array_start, .)

.preinit_array
 *(.preinit_array)
                0x0202b8e4                PROVIDE (__preinit_array_end, .)
                0x0202b8e4                PROVIDE (__init_array_start, .)

.init_array     0x0202b8e4        0x4
 *(.init_array)
 .init_array    0x0202b8e4        0x4 c:/devkitpro2007/devkitarm/bin/../lib/gcc/arm-eabi/4.1.2/crtbegin.o
                0x0202b8e8                PROVIDE (__init_array_end, .)
                0x0202b8e8                PROVIDE (__fini_array_start, .)

.fini_array     0x0202b8e8        0x4
 *(.fini_array)
 .fini_array    0x0202b8e8        0x4 c:/devkitpro2007/devkitarm/bin/../lib/gcc/arm-eabi/4.1.2/crtbegin.o
                0x0202b8ec                PROVIDE (__fini_array_end, .)

.ctors          0x0202b8ec        0x0
 *crtbegin.o(.ctors)
 *(EXCLUDE_FILE(*crtend.o) .ctors)
 *(SORT(.ctors.*))
 *(.ctors)
                0x0202b8ec                . = ALIGN (0x4)

.dtors          0x0202b8ec        0x0
 *crtbegin.o(.dtors)
 *(EXCLUDE_FILE(*crtend.o) .dtors)
 *(SORT(.dtors.*))
 *(.dtors)
                0x0202b8ec                . = ALIGN (0x4)

.eh_frame       0x0202b8ec        0x4
 *(.eh_frame)
 .eh_frame      0x0202b8ec        0x0 c:/devkitpro2007/devkitarm/bin/../lib/gcc/arm-eabi/4.1.2/crtbegin.o
 .eh_frame      0x0202b8ec        0x4 c:/devkitpro2007/devkitarm/bin/../lib/gcc/arm-eabi/4.1.2/crtend.o
                0x0202b8f0                . = ALIGN (0x4)

.gcc_except_table
                0x0202b8f0        0x0
 *(.gcc_except_table)
                0x0202b8f0                . = ALIGN (0x4)

.jcr            0x0202b8f0        0x4
 *(.jcr)
 .jcr           0x0202b8f0        0x0 c:/devkitpro2007/devkitarm/bin/../lib/gcc/arm-eabi/4.1.2/crtbegin.o
 .jcr           0x0202b8f0        0x4 c:/devkitpro2007/devkitarm/bin/../lib/gcc/arm-eabi/4.1.2/crtend.o

.got
 *(.got.plt)
 *(.got)
 *(.rel.got)

.ewram          0x0202b8f4        0x0
                0x0202b8f4                __ewram_start = <code 342> (.)
 *(.ewram)
 *ewram.*(.text)
                0x0202b8f4                . = ALIGN (0x4)

.data           0x0202b8f4    0x20de0
                0x0202b8f4                __data_start = <code 342> (.)
 *(.data)
 .data          0x0202b8f4        0x0 c:/devkitpro2007/devkitarm/bin/../lib/gcc/arm-eabi/4.1.2/../../../../arm-eabi/lib/ds_arm9_crt0.o
 .data          0x0202b8f4        0x0 c:/devkitpro2007/devkitarm/bin/../lib/gcc/arm-eabi/4.1.2/crti.o
 .data          0x0202b8f4        0x4 c:/devkitpro2007/devkitarm/bin/../lib/gcc/arm-eabi/4.1.2/crtbegin.o
                0x0202b8f4                __dso_handle
 .data          0x0202b8f8        0x0 ./SNES_global.o
 .data          0x0202b8f8        0x0 ./apu.o
 .data          0x0202b8f8        0x0 ./core.o
 .data          0x0202b8f8        0x0 ./engine.o
 .data          0x0202b8f8        0x0 ./fs.o
 .data          0x0202b8f8        0x0 ./gui.o
 .data          0x0202b8f8        0x0 ./intr.o
 .data          0x0202b8f8       0x28 ./main.o
                0x0202b8fc                options_0
                0x0202b914                SpeedHacksChoices
                0x0202b8f8                timer_0
                0x0202b908                YScroll_mode_0
 .data          0x0202b920        0x0 ./memmap.o
 .data          0x0202b920      0x100 ./opcodes.o
                0x0202b920                OpcShortLoop
 .data          0x0202ba20    0x20000 ./opcodes2.o
                0x0202ba20                decimalAdd
 .data          0x0204ba20        0x0 ./ppu.o
 .data          0x0204ba20        0x0 ./snapshot.o
 .data          0x0204ba20        0x0 ./snes.o
 .data          0x0204ba20        0x0 ./touch.o
 .data          0x0204ba20        0x0 c:/devkitPro2007/libnds/lib\libfat.a(libfat.o)
 .data          0x0204ba20        0x4 c:/devkitPro2007/libnds/lib\libfat.a(partition.o)
                0x0204ba20                DEVICE_NAME
 .data          0x0204ba24       0x20 c:/devkitPro2007/libnds/lib\libfat.a(disc.o)
                0x0204ba24                ioInterfaces
 .data          0x0204ba44        0x0 c:/devkitPro2007/libnds/lib\libfat.a(io_m3cf.o)
 .data          0x0204ba44        0x0 c:/devkitPro2007/libnds/lib\libfat.a(io_m3sd.o)
 .data          0x0204ba44        0x0 c:/devkitPro2007/libnds/lib\libfat.a(io_mpcf.o)
 .data          0x0204ba44        0x0 c:/devkitPro2007/libnds/lib\libfat.a(io_njsd.o)
 .data          0x0204ba44        0xc c:/devkitPro2007/libnds/lib\libfat.a(io_nmmc.o)
                0x0204ba44                _NMMC_spi_freq
                0x0204ba48                selectMMC_command
 .data          0x0204ba50        0x0 c:/devkitPro2007/libnds/lib\libfat.a(io_sccf.o)
 .data          0x0204ba50        0x0 c:/devkitPro2007/libnds/lib\libfat.a(io_scsd.o)
 .data          0x0204ba50        0x0 c:/devkitPro2007/libnds/lib\libfat.a(io_sd_common.o)
 .data          0x0204ba50        0x0 c:/devkitPro2007/libnds/lib\libfat.a(io_dldi.o)
 .data          0x0204ba50        0x0 c:/devkitPro2007/libnds/lib\libfat.a(io_scsd_s.o)
 .data          0x0204ba50        0x0 c:/devkitPro2007/libnds/lib\libfat.a(cache.o)
 .data          0x0204ba50        0x0 c:/devkitPro2007/libnds/lib\libfat.a(fatdir.o)
 .data          0x0204ba50        0x0 c:/devkitPro2007/libnds/lib\libfat.a(fatfile.o)
 .data          0x0204ba50        0x0 c:/devkitPro2007/libnds/lib\libfat.a(file_allocation_table.o)
 .data          0x0204ba50        0x0 c:/devkitPro2007/libnds/lib\libfat.a(filetime.o)
 .data          0x0204ba50        0x0 c:/devkitPro2007/libnds/lib\libfat.a(io_cf_common.o)
 .data          0x0204ba50        0x0 c:/devkitPro2007/libnds/lib\libfat.a(io_m3_common.o)
 .data          0x0204ba50        0x0 c:/devkitPro2007/libnds/lib\libfat.a(io_sc_common.o)
 .data          0x0204ba50        0x0 c:/devkitPro2007/libnds/lib\libfat.a(directory.o)
 .data          0x0204ba50        0x0 c:/devkitPro2007/libnds/lib\libnds9.a(console.o)
 .data          0x0204ba50        0x0 c:/devkitPro2007/libnds/lib\libnds9.a(initSystem.o)
 .data          0x0204ba50        0x3 c:/devkitPro2007/libnds/lib\libnds9.a(keys.o)
 .data          0x0204ba53        0x0 c:/devkitPro2007/libnds/lib\libnds9.a(video.o)
 .data          0x0204ba53        0x0 c:/devkitPro2007/libnds/lib\libnds9.a(card.o)
 .data          0x0204ba53        0x0 c:/devkitPro2007/libnds/lib\libnds9.a(interrupts.o)
 .data          0x0204ba53        0x0 c:/devkitPro2007/libnds/lib\libnds9.a(biosCalls.o)
 .data          0x0204ba53        0x0 c:/devkitPro2007/libnds/lib\libnds9.a(interruptDispatcher.o)
 .data          0x0204ba53        0x0 c:/devkitPro2007/libnds/lib\libnds9.a(default_font.o)
 .data          0x0204ba53        0x0 c:/devkitpro2007/devkitarm/bin/../lib/gcc/arm-eabi/4.1.2\libgcc.a(_udivsi3.o)
 .data          0x0204ba53        0x0 c:/devkitpro2007/devkitarm/bin/../lib/gcc/arm-eabi/4.1.2\libgcc.a(_divsi3.o)
 .data          0x0204ba53        0x0 c:/devkitpro2007/devkitarm/bin/../lib/gcc/arm-eabi/4.1.2\libgcc.a(_dvmd_tls.o)
 *fill*         0x0204ba53        0x1 ff
 .data          0x0204ba54        0x4 c:/devkitpro2007/devkitarm/bin/../lib/gcc/arm-eabi/4.1.2/../../../../arm-eabi/lib\libc.a(lib_a-ctype_.o)
                0x0204ba54                __ctype_ptr
 .data          0x0204ba58        0x0 c:/devkitpro2007/devkitarm/bin/../lib/gcc/arm-eabi/4.1.2/../../../../arm-eabi/lib\libc.a(lib_a-fclose.o)
 .data          0x0204ba58        0x0 c:/devkitpro2007/devkitarm/bin/../lib/gcc/arm-eabi/4.1.2/../../../../arm-eabi/lib\libc.a(lib_a-fflush.o)
 .data          0x0204ba58        0x0 c:/devkitpro2007/devkitarm/bin/../lib/gcc/arm-eabi/4.1.2/../../../../arm-eabi/lib\libc.a(lib_a-findfp.o)
 .data          0x0204ba58        0x0 c:/devkitpro2007/devkitarm/bin/../lib/gcc/arm-eabi/4.1.2/../../../../arm-eabi/lib\libc.a(lib_a-fopen.o)
 .data          0x0204ba58        0x0 c:/devkitpro2007/devkitarm/bin/../lib/gcc/arm-eabi/4.1.2/../../../../arm-eabi/lib\libc.a(lib_a-fread.o)
 .data          0x0204ba58        0x0 c:/devkitpro2007/devkitarm/bin/../lib/gcc/arm-eabi/4.1.2/../../../../arm-eabi/lib\libc.a(lib_a-freer.o)
 .data          0x0204ba58        0x0 c:/devkitpro2007/devkitarm/bin/../lib/gcc/arm-eabi/4.1.2/../../../../arm-eabi/lib\libc.a(lib_a-fseek.o)
 .data          0x0204ba58        0x0 c:/devkitpro2007/devkitarm/bin/../lib/gcc/arm-eabi/4.1.2/../../../../arm-eabi/lib\libc.a(lib_a-fwalk.o)
 .data          0x0204ba58        0x0 c:/devkitpro2007/devkitarm/bin/../lib/gcc/arm-eabi/4.1.2/../../../../arm-eabi/lib\libc.a(lib_a-fwrite.o)
 .data          0x0204ba58      0x418 c:/devkitpro2007/devkitarm/bin/../lib/gcc/arm-eabi/4.1.2/../../../../arm-eabi/lib\libc.a(lib_a-impure.o)
                0x0204ba58                _impure_ptr
 .data          0x0204be70        0x0 c:/devkitpro2007/devkitarm/bin/../lib/gcc/arm-eabi/4.1.2/../../../../arm-eabi/lib\libc.a(lib_a-init.o)
 .data          0x0204be70        0x0 c:/devkitpro2007/devkitarm/bin/../lib/gcc/arm-eabi/4.1.2/../../../../arm-eabi/lib\libc.a(lib_a-iprintf.o)
 .data          0x0204be70        0x0 c:/devkitpro2007/devkitarm/bin/../lib/gcc/arm-eabi/4.1.2/../../../../arm-eabi/lib\libc.a(lib_a-makebuf.o)
 .data          0x0204be70        0x0 c:/devkitpro2007/devkitarm/bin/../lib/gcc/arm-eabi/4.1.2/../../../../arm-eabi/lib\libc.a(lib_a-malloc.o)
 .data          0x0204be70      0x410 c:/devkitpro2007/devkitarm/bin/../lib/gcc/arm-eabi/4.1.2/../../../../arm-eabi/lib\libc.a(lib_a-mallocr.o)
                0x0204c27c                __malloc_sbrk_base
                0x0204be70                __malloc_av_
                0x0204c278                __malloc_trim_threshold
 .data          0x0204c280        0x0 c:/devkitpro2007/devkitarm/bin/../lib/gcc/arm-eabi/4.1.2/../../../../arm-eabi/lib\libc.a(lib_a-memcpy.o)
 .data          0x0204c280        0x0 c:/devkitpro2007/devkitarm/bin/../lib/gcc/arm-eabi/4.1.2/../../../../arm-eabi/lib\libc.a(lib_a-memmove.o)
 .data          0x0204c280        0x0 c:/devkitpro2007/devkitarm/bin/../lib/gcc/arm-eabi/4.1.2/../../../../arm-eabi/lib\libc.a(lib_a-memset.o)
 .data          0x0204c280        0x0 c:/devkitpro2007/devkitarm/bin/../lib/gcc/arm-eabi/4.1.2/../../../../arm-eabi/lib\libc.a(lib_a-mlock.o)
 .data          0x0204c280        0x0 c:/devkitpro2007/devkitarm/bin/../lib/gcc/arm-eabi/4.1.2/../../../../arm-eabi/lib\libc.a(lib_a-printf.o)
 .data          0x0204c280        0x0 c:/devkitpro2007/devkitarm/bin/../lib/gcc/arm-eabi/4.1.2/../../../../arm-eabi/lib\libc.a(lib_a-refill.o)
 .data          0x0204c280        0x0 c:/devkitpro2007/devkitarm/bin/../lib/gcc/arm-eabi/4.1.2/../../../../arm-eabi/lib\libc.a(lib_a-setvbuf.o)
 .data          0x0204c280        0x0 c:/devkitpro2007/devkitarm/bin/../lib/gcc/arm-eabi/4.1.2/../../../../arm-eabi/lib\libc.a(lib_a-siscanf.o)
 .data          0x0204c280        0x0 c:/devkitpro2007/devkitarm/bin/../lib/gcc/arm-eabi/4.1.2/../../../../arm-eabi/lib\libc.a(lib_a-sprintf.o)
 .data          0x0204c280        0x0 c:/devkitpro2007/devkitarm/bin/../lib/gcc/arm-eabi/4.1.2/../../../../arm-eabi/lib\libc.a(lib_a-stdio.o)
 .data          0x0204c280        0x0 c:/devkitpro2007/devkitarm/bin/../lib/gcc/arm-eabi/4.1.2/../../../../arm-eabi/lib\libc.a(lib_a-strcasecmp.o)
 .data          0x0204c280        0x0 c:/devkitpro2007/devkitarm/bin/../lib/gcc/arm-eabi/4.1.2/../../../../arm-eabi/lib\libc.a(lib_a-strcat.o)
 .data          0x0204c280        0x0 c:/devkitpro2007/devkitarm/bin/../lib/gcc/arm-eabi/4.1.2/../../../../arm-eabi/lib\libc.a(lib_a-strchr.o)
 .data          0x0204c280        0x0 c:/devkitpro2007/devkitarm/bin/../lib/gcc/arm-eabi/4.1.2/../../../../arm-eabi/lib\libc.a(lib_a-strcmp.o)
 .data          0x0204c280        0x0 c:/devkitpro2007/devkitarm/bin/../lib/gcc/arm-eabi/4.1.2/../../../../arm-eabi/lib\libc.a(lib_a-strcpy.o)
 .data          0x0204c280        0x0 c:/devkitpro2007/devkitarm/bin/../lib/gcc/arm-eabi/4.1.2/../../../../arm-eabi/lib\libc.a(lib_a-strlen.o)
 .data          0x0204c280        0x0 c:/devkitpro2007/devkitarm/bin/../lib/gcc/arm-eabi/4.1.2/../../../../arm-eabi/lib\libc.a(lib_a-strncasecmp.o)
 .data          0x0204c280        0x0 c:/devkitpro2007/devkitarm/bin/../lib/gcc/arm-eabi/4.1.2/../../../../arm-eabi/lib\libc.a(lib_a-strncmp.o)
 .data          0x0204c280        0x0 c:/devkitpro2007/devkitarm/bin/../lib/gcc/arm-eabi/4.1.2/../../../../arm-eabi/lib\libc.a(lib_a-strncpy.o)
 .data          0x0204c280        0x0 c:/devkitpro2007/devkitarm/bin/../lib/gcc/arm-eabi/4.1.2/../../../../arm-eabi/lib\libc.a(lib_a-strnlen.o)
 .data          0x0204c280        0x0 c:/devkitpro2007/devkitarm/bin/../lib/gcc/arm-eabi/4.1.2/../../../../arm-eabi/lib\libc.a(lib_a-strpbrk.o)
 .data          0x0204c280        0x0 c:/devkitpro2007/devkitarm/bin/../lib/gcc/arm-eabi/4.1.2/../../../../arm-eabi/lib\libc.a(lib_a-strrchr.o)
 .data          0x0204c280        0x0 c:/devkitpro2007/devkitarm/bin/../lib/gcc/arm-eabi/4.1.2/../../../../arm-eabi/lib\libc.a(lib_a-strstr.o)
 .data          0x0204c280        0x0 c:/devkitpro2007/devkitarm/bin/../lib/gcc/arm-eabi/4.1.2/../../../../arm-eabi/lib\libc.a(lib_a-strupr.o)
 .data          0x0204c280        0x0 c:/devkitpro2007/devkitarm/bin/../lib/gcc/arm-eabi/4.1.2/../../../../arm-eabi/lib\libc.a(lib_a-sysstat.o)
 .data          0x0204c280        0x0 c:/devkitpro2007/devkitarm/bin/../lib/gcc/arm-eabi/4.1.2/../../../../arm-eabi/lib\libc.a(lib_a-toupper.o)
 .data          0x0204c280        0x0 c:/devkitpro2007/devkitarm/bin/../lib/gcc/arm-eabi/4.1.2/../../../../arm-eabi/lib\libc.a(lib_a-vfiprintf.o)
 .data          0x0204c280        0x0 c:/devkitpro2007/devkitarm/bin/../lib/gcc/arm-eabi/4.1.2/../../../../arm-eabi/lib\libc.a(lib_a-vfiscanf.o)
 .data          0x0204c280        0x0 c:/devkitpro2007/devkitarm/bin/../lib/gcc/arm-eabi/4.1.2/../../../../arm-eabi/lib\libc.a(lib_a-vfprintf.o)
 .data          0x0204c280        0x0 c:/devkitpro2007/devkitarm/bin/../lib/gcc/arm-eabi/4.1.2/../../../../arm-eabi/lib\libc.a(lib_a-vsnprintf.o)
 .data          0x0204c280        0x0 c:/devkitpro2007/devkitarm/bin/../lib/gcc/arm-eabi/4.1.2/../../../../arm-eabi/lib\libc.a(lib_a-wcrtomb.o)
 .data          0x0204c280        0x0 c:/devkitpro2007/devkitarm/bin/../lib/gcc/arm-eabi/4.1.2/../../../../arm-eabi/lib\libc.a(lib_a-wcsrtombs.o)
 .data          0x0204c280        0x0 c:/devkitpro2007/devkitarm/bin/../lib/gcc/arm-eabi/4.1.2/../../../../arm-eabi/lib\libc.a(lib_a-wctomb_r.o)
 .data          0x0204c280        0x0 c:/devkitpro2007/devkitarm/bin/../lib/gcc/arm-eabi/4.1.2/../../../../arm-eabi/lib\libc.a(lib_a-wsetup.o)
 .data          0x0204c280        0x0 c:/devkitpro2007/devkitarm/bin/../lib/gcc/arm-eabi/4.1.2/../../../../arm-eabi/lib\libc.a(lib_a-dtoa.o)
 .data          0x0204c280        0x0 c:/devkitpro2007/devkitarm/bin/../lib/gcc/arm-eabi/4.1.2/../../../../arm-eabi/lib\libc.a(lib_a-flags.o)
 .data          0x0204c280        0x0 c:/devkitpro2007/devkitarm/bin/../lib/gcc/arm-eabi/4.1.2/../../../../arm-eabi/lib\libc.a(lib_a-fvwrite.o)
 .data          0x0204c280        0x0 c:/devkitpro2007/devkitarm/bin/../lib/gcc/arm-eabi/4.1.2/../../../../arm-eabi/lib\libc.a(lib_a-iswspace.o)
 .data          0x0204c280       0x10 c:/devkitpro2007/devkitarm/bin/../lib/gcc/arm-eabi/4.1.2/../../../../arm-eabi/lib\libc.a(lib_a-locale.o)
                0x0204c280                __mb_cur_max
                0x0204c284                __lc_ctype
 .data          0x0204c290        0x0 c:/devkitpro2007/devkitarm/bin/../lib/gcc/arm-eabi/4.1.2/../../../../arm-eabi/lib\libc.a(lib_a-mbrtowc.o)
 .data          0x0204c290        0x0 c:/devkitpro2007/devkitarm/bin/../lib/gcc/arm-eabi/4.1.2/../../../../arm-eabi/lib\libc.a(lib_a-mbtowc_r.o)
 .data          0x0204c290        0x0 c:/devkitpro2007/devkitarm/bin/../lib/gcc/arm-eabi/4.1.2/../../../../arm-eabi/lib\libc.a(lib_a-memchr.o)
 .data          0x0204c290        0x0 c:/devkitpro2007/devkitarm/bin/../lib/gcc/arm-eabi/4.1.2/../../../../arm-eabi/lib\libc.a(lib_a-mprec.o)
 .data          0x0204c290        0x0 c:/devkitpro2007/devkitarm/bin/../lib/gcc/arm-eabi/4.1.2/../../../../arm-eabi/lib\libc.a(lib_a-reallocr.o)
 .data          0x0204c290        0x0 c:/devkitpro2007/devkitarm/bin/../lib/gcc/arm-eabi/4.1.2/../../../../arm-eabi/lib\libc.a(lib_a-s_isinfd.o)
 .data          0x0204c290        0x0 c:/devkitpro2007/devkitarm/bin/../lib/gcc/arm-eabi/4.1.2/../../../../arm-eabi/lib\libc.a(lib_a-s_isnand.o)
 .data          0x0204c290        0x0 c:/devkitpro2007/devkitarm/bin/../lib/gcc/arm-eabi/4.1.2/../../../../arm-eabi/lib\libc.a(lib_a-sccl.o)
 .data          0x0204c290        0x0 c:/devkitpro2007/devkitarm/bin/../lib/gcc/arm-eabi/4.1.2/../../../../arm-eabi/lib\libc.a(lib_a-strtol.o)
 .data          0x0204c290        0x0 c:/devkitpro2007/devkitarm/bin/../lib/gcc/arm-eabi/4.1.2/../../../../arm-eabi/lib\libc.a(lib_a-strtoul.o)
 .data          0x0204c290        0x0 c:/devkitpro2007/devkitarm/bin/../lib/gcc/arm-eabi/4.1.2/../../../../arm-eabi/lib\libc.a(lib_a-ungetc.o)
 .data          0x0204c290        0x0 c:/devkitpro2007/devkitarm/bin/../lib/gcc/arm-eabi/4.1.2/../../../../arm-eabi/lib\libc.a(lib_a-callocr.o)
 .data          0x0204c290        0x0 c:/devkitpro2007/devkitarm/bin/../lib/gcc/arm-eabi/4.1.2\libgcc.a(_addsubdf3.o)
 .data          0x0204c290        0x0 c:/devkitpro2007/devkitarm/bin/../lib/gcc/arm-eabi/4.1.2\libgcc.a(_muldivdf3.o)
 .data          0x0204c290        0x0 c:/devkitpro2007/devkitarm/bin/../lib/gcc/arm-eabi/4.1.2\libgcc.a(_cmpdf2.o)
 .data          0x0204c290        0x0 c:/devkitpro2007/devkitarm/bin/../lib/gcc/arm-eabi/4.1.2\libgcc.a(_fixdfsi.o)
 .data          0x0204c290       0x44 c:/devkitpro2007/devkitarm/bin/../lib/gcc/arm-eabi/4.1.2/../../../../arm-eabi/lib\libsysbase.a(iosupport.o)
                0x0204c290                devoptab_list
 .data          0x0204c2d4        0x0 c:/devkitpro2007/devkitarm/bin/../lib/gcc/arm-eabi/4.1.2/../../../../arm-eabi/lib\libsysbase.a(close.o)
 .data          0x0204c2d4        0x0 c:/devkitpro2007/devkitarm/bin/../lib/gcc/arm-eabi/4.1.2/../../../../arm-eabi/lib\libsysbase.a(fstat.o)
 .data          0x0204c2d4        0x0 c:/devkitpro2007/devkitarm/bin/../lib/gcc/arm-eabi/4.1.2/../../../../arm-eabi/lib\libsysbase.a(isatty.o)
 .data          0x0204c2d4        0x0 c:/devkitpro2007/devkitarm/bin/../lib/gcc/arm-eabi/4.1.2/../../../../arm-eabi/lib\libsysbase.a(lseek.o)
 .data          0x0204c2d4        0x0 c:/devkitpro2007/devkitarm/bin/../lib/gcc/arm-eabi/4.1.2/../../../../arm-eabi/lib\libsysbase.a(open.o)
 .data          0x0204c2d4        0x0 c:/devkitpro2007/devkitarm/bin/../lib/gcc/arm-eabi/4.1.2/../../../../arm-eabi/lib\libsysbase.a(read.o)
 .data          0x0204c2d4        0x0 c:/devkitpro2007/devkitarm/bin/../lib/gcc/arm-eabi/4.1.2/../../../../arm-eabi/lib\libsysbase.a(sbrk.o)
 .data          0x0204c2d4        0x0 c:/devkitpro2007/devkitarm/bin/../lib/gcc/arm-eabi/4.1.2/../../../../arm-eabi/lib\libsysbase.a(stat.o)
 .data          0x0204c2d4        0x0 c:/devkitpro2007/devkitarm/bin/../lib/gcc/arm-eabi/4.1.2/../../../../arm-eabi/lib\libsysbase.a(times.o)
 .data          0x0204c2d4        0x0 c:/devkitpro2007/devkitarm/bin/../lib/gcc/arm-eabi/4.1.2/../../../../arm-eabi/lib\libsysbase.a(write.o)
 .data          0x0204c2d4        0x0 c:/devkitpro2007/devkitarm/bin/../lib/gcc/arm-eabi/4.1.2/../../../../arm-eabi/lib\libsysbase.a(malloc_vars.o)
 .data          0x0204c2d4      0x400 c:/devkitpro2007/devkitarm/bin/../lib/gcc/arm-eabi/4.1.2/../../../../arm-eabi/lib\libsysbase.a(chdir.o)
 .data          0x0204c6d4        0x0 c:/devkitpro2007/devkitarm/bin/../lib/gcc/arm-eabi/4.1.2/../../../../arm-eabi/lib\libsysbase.a(dir.o)
 .data          0x0204c6d4        0x0 c:/devkitpro2007/devkitarm/bin/../lib/gcc/arm-eabi/4.1.2/../../../../arm-eabi/lib\libsysbase.a(build_argv.o)
 .data          0x0204c6d4        0x0 c:/devkitpro2007/devkitarm/bin/../lib/gcc/arm-eabi/4.1.2/../../../../arm-eabi/lib\libc.a(lib_a-errno.o)
 .data          0x0204c6d4        0x0 c:/devkitpro2007/devkitarm/bin/../lib/gcc/arm-eabi/4.1.2/crtend.o
 .data          0x0204c6d4        0x0 c:/devkitpro2007/devkitarm/bin/../lib/gcc/arm-eabi/4.1.2/crtn.o
 *(.data.*)
 *(.gnu.linkonce.d*)
                0x0204c6d4                . = ALIGN (0x4)
                0x0204c6d4                __data_end = <code 342> (.)
                0x0204c6d4                __dtcm_lma = .

.dtcm           0x0b000000     0x2470 load address 0x0204c6d4
 *(.dtcm)
 .dtcm          0x0b000000       0x70 ./SNES_global.o
                0x0b000018                CPU
                0x0b000000                SNESC
 .dtcm          0x0b000070     0x2000 ./opcodes2.o
 .dtcm          0x0b002070      0x400 ./ppu.o
                0x0b002070                bittab
 *(.dtcm.*)
                0x0b002470                . = ALIGN (0x4)
                0x0b002470                __dtcm_end = <code 342> (.)
                0x0204eb44                __itcm_lma = (__dtcm_lma + SIZEOF (.dtcm))

.itcm           0x01000000     0x6b90 load address 0x0204eb44
 *(.itcm)
 .itcm          0x01000000     0x2060 ./core.o
                0x01000d34                PPU_port_write
                0x01000000                DMA_port_read
                0x01001ce8                DMA_port_write
                0x010002d4                PPU_port_read
 .itcm          0x01002060      0x81c ./engine.o
                0x01002060                go
 .itcm          0x0100287c      0x7c4 ./memmap.o
                0x01002f1c                mem_getword
                0x0100299c                IO_setword
                0x01002b48                IO_getword
                0x01002c4c                IO_getbyte
                0x01002920                mem_removeCacheBlock
                0x01002df8                map_memory
                0x01002ea4                mem_setword
                0x01002f80                mem_setbyte
                0x01002fec                mem_getbyte
                0x0100287c                mem_setCacheBlock
                0x01002cf4                mem_checkReload
                0x01002aa8                IO_setbyte
 .itcm          0x01003040       0xf4 ./opcodes.o
                0x010030c0                pullb
                0x010030f0                pullw
                0x01003040                pushb
                0x0100306c                pushw
 *fill*         0x01003134        0xc ff
 .itcm          0x01003140     0x38c0 ./opcodes2.o
                0x0100697c                D
                0x010069a8                CPU_log
                0x0100698c                PCptr
                0x01006980                SaveR6
                0x0100685c                CPU_update
                0x01006998                A
                0x010068a4                CPU_goto2
                0x01006994                Y
                0x01006984                S
                0x01004da4                SnesB
                0x010068dc                CPU_init
                0x010069ac                PC
                0x01005dc8                CPU_NextCycles
                0x01006484                SnesPCOffset
                0x01005dd0                CPU_LoopAddress
                0x010069c0                AsmDebug
                0x01005dc4                CPU_LoopSpeedHacks
                0x010069b4                DB
                0x010069bc                Cycles
                0x010069b0                PB
                0x010069b8                P
                0x01006988                SaveR8
                0x01005dcc                CPU_WaitAddress
                0x01006990                X
 .itcm          0x01006a00       0xc8 c:/devkitPro2007/libnds/lib\libnds9.a(interrupts.o)
                0x01006a00                irqTable
 .itcm          0x01006ac8       0xc8 c:/devkitPro2007/libnds/lib\libnds9.a(interruptDispatcher.o)
                0x01006ac8                IntrMain
 *itcm.*(.text)
                0x01006b90                . = ALIGN (0x4)
                0x01006b90                __itcm_end = <code 342> (.)

.sbss           0x0b002470        0x0
                0x0b002470                __sbss_start = <code 342> (.)
                0x0b002470                __sbss_start__ = <code 342> (.)
 *(.sbss)
                0x0b002470                . = ALIGN (0x4)
                0x0b002470                __sbss_end = <code 342> (.)
                0x020556d4                __bss_lma = (__itcm_lma + SIZEOF (.itcm))
                0x020556d4                __appended_data = (__itcm_lma + SIZEOF (.itcm))

.bss            0x020556d4    0x77f38 load address 0x020556d4
                0x020556d4                __bss_start = <code 342> (.)
                0x020556d4                __bss_start__ = <code 342> (.)
 *(.dynbss)
 *(.gnu.linkonce.b*)
 *(.bss*)
 .bss           0x020556d4        0x0 c:/devkitpro2007/devkitarm/bin/../lib/gcc/arm-eabi/4.1.2/../../../../arm-eabi/lib/ds_arm9_crt0.o
 .bss           0x020556d4        0x0 c:/devkitpro2007/devkitarm/bin/../lib/gcc/arm-eabi/4.1.2/crti.o
 .bss           0x020556d4       0x1c c:/devkitpro2007/devkitarm/bin/../lib/gcc/arm-eabi/4.1.2/crtbegin.o
 .bss           0x020556f0        0x0 ./SNES_global.o
 .bss           0x020556f0        0x0 ./apu.o
 .bss           0x020556f0        0x0 ./core.o
 .bss           0x020556f0        0x4 ./engine.o
                0x020556f0                addri
 .bss           0x020556f4      0x2a0 ./fs.o
 .bss           0x02055994        0x0 ./gui.o
 .bss           0x02055994        0x0 ./intr.o
 .bss           0x02055994        0x4 ./main.o
                0x02055994                frame
 .bss           0x02055998        0xc ./memmap.o
                0x020559a0                ROM_paging_cur
                0x0205599c                ROM_paging_offs
                0x02055998                ROM_paging
 .bss           0x020559a4        0x0 ./opcodes.o
 .bss           0x020559a4        0x0 ./opcodes2.o
 .bss           0x020559a4        0x4 ./ppu.o
 .bss           0x020559a8        0x0 ./snapshot.o
 .bss           0x020559a8        0x0 ./snes.o
 .bss           0x020559a8       0x30 ./touch.o
 .bss           0x020559d8        0x0 c:/devkitPro2007/libnds/lib\libfat.a(libfat.o)
 .bss           0x020559d8       0x10 c:/devkitPro2007/libnds/lib\libfat.a(partition.o)
                0x020559d8                _FAT_partitions
 .bss           0x020559e8        0x0 c:/devkitPro2007/libnds/lib\libfat.a(disc.o)
 .bss           0x020559e8        0x0 c:/devkitPro2007/libnds/lib\libfat.a(io_m3cf.o)
 .bss           0x020559e8        0x4 c:/devkitPro2007/libnds/lib\libfat.a(io_m3sd.o)
 .bss           0x020559ec        0x0 c:/devkitPro2007/libnds/lib\libfat.a(io_mpcf.o)
 .bss           0x020559ec        0x8 c:/devkitPro2007/libnds/lib\libfat.a(io_njsd.o)
 .bss           0x020559f4        0x0 c:/devkitPro2007/libnds/lib\libfat.a(io_nmmc.o)
 .bss           0x020559f4        0x0 c:/devkitPro2007/libnds/lib\libfat.a(io_sccf.o)
 .bss           0x020559f4        0x4 c:/devkitPro2007/libnds/lib\libfat.a(io_scsd.o)
 .bss           0x020559f8        0x0 c:/devkitPro2007/libnds/lib\libfat.a(io_sd_common.o)
 .bss           0x020559f8        0x0 c:/devkitPro2007/libnds/lib\libfat.a(io_dldi.o)
 .bss           0x020559f8        0x0 c:/devkitPro2007/libnds/lib\libfat.a(io_scsd_s.o)
 .bss           0x020559f8        0x0 c:/devkitPro2007/libnds/lib\libfat.a(cache.o)
 .bss           0x020559f8        0x0 c:/devkitPro2007/libnds/lib\libfat.a(fatdir.o)
 .bss           0x020559f8        0x0 c:/devkitPro2007/libnds/lib\libfat.a(fatfile.o)
 .bss           0x020559f8        0x0 c:/devkitPro2007/libnds/lib\libfat.a(file_allocation_table.o)
 .bss           0x020559f8        0x0 c:/devkitPro2007/libnds/lib\libfat.a(filetime.o)
 .bss           0x020559f8       0x24 c:/devkitPro2007/libnds/lib\libfat.a(io_cf_common.o)
                0x020559f8                cfRegisters
 .bss           0x02055a1c        0x0 c:/devkitPro2007/libnds/lib\libfat.a(io_m3_common.o)
 .bss           0x02055a1c        0x0 c:/devkitPro2007/libnds/lib\libfat.a(io_sc_common.o)
 .bss           0x02055a1c        0x0 c:/devkitPro2007/libnds/lib\libfat.a(directory.o)
 .bss           0x02055a1c       0x24 c:/devkitPro2007/libnds/lib\libnds9.a(console.o)
                0x02055a1c                fontBold
 .bss           0x02055a40        0x0 c:/devkitPro2007/libnds/lib\libnds9.a(initSystem.o)
 .bss           0x02055a40        0x6 c:/devkitPro2007/libnds/lib\libnds9.a(keys.o)
 .bss           0x02055a46        0x0 c:/devkitPro2007/libnds/lib\libnds9.a(video.o)
 .bss           0x02055a46        0x0 c:/devkitPro2007/libnds/lib\libnds9.a(card.o)
 .bss           0x02055a46        0x0 c:/devkitPro2007/libnds/lib\libnds9.a(interrupts.o)
 .bss           0x02055a46        0x0 c:/devkitPro2007/libnds/lib\libnds9.a(biosCalls.o)
 .bss           0x02055a46        0x0 c:/devkitPro2007/libnds/lib\libnds9.a(interruptDispatcher.o)
 .bss           0x02055a46        0x0 c:/devkitPro2007/libnds/lib\libnds9.a(default_font.o)
 .bss           0x02055a46        0x0 c:/devkitpro2007/devkitarm/bin/../lib/gcc/arm-eabi/4.1.2\libgcc.a(_udivsi3.o)
 .bss           0x02055a46        0x0 c:/devkitpro2007/devkitarm/bin/../lib/gcc/arm-eabi/4.1.2\libgcc.a(_divsi3.o)
 .bss           0x02055a46        0x0 c:/devkitpro2007/devkitarm/bin/../lib/gcc/arm-eabi/4.1.2\libgcc.a(_dvmd_tls.o)
 .bss           0x02055a46        0x0 c:/devkitpro2007/devkitarm/bin/../lib/gcc/arm-eabi/4.1.2/../../../../arm-eabi/lib\libc.a(lib_a-ctype_.o)
 .bss           0x02055a46        0x0 c:/devkitpro2007/devkitarm/bin/../lib/gcc/arm-eabi/4.1.2/../../../../arm-eabi/lib\libc.a(lib_a-fclose.o)
 .bss           0x02055a46        0x0 c:/devkitpro2007/devkitarm/bin/../lib/gcc/arm-eabi/4.1.2/../../../../arm-eabi/lib\libc.a(lib_a-fflush.o)
 .bss           0x02055a46        0x0 c:/devkitpro2007/devkitarm/bin/../lib/gcc/arm-eabi/4.1.2/../../../../arm-eabi/lib\libc.a(lib_a-findfp.o)
 .bss           0x02055a46        0x0 c:/devkitpro2007/devkitarm/bin/../lib/gcc/arm-eabi/4.1.2/../../../../arm-eabi/lib\libc.a(lib_a-fopen.o)
 .bss           0x02055a46        0x0 c:/devkitpro2007/devkitarm/bin/../lib/gcc/arm-eabi/4.1.2/../../../../arm-eabi/lib\libc.a(lib_a-fread.o)
 .bss           0x02055a46        0x0 c:/devkitpro2007/devkitarm/bin/../lib/gcc/arm-eabi/4.1.2/../../../../arm-eabi/lib\libc.a(lib_a-freer.o)
 .bss           0x02055a46        0x0 c:/devkitpro2007/devkitarm/bin/../lib/gcc/arm-eabi/4.1.2/../../../../arm-eabi/lib\libc.a(lib_a-fseek.o)
 .bss           0x02055a46        0x0 c:/devkitpro2007/devkitarm/bin/../lib/gcc/arm-eabi/4.1.2/../../../../arm-eabi/lib\libc.a(lib_a-fwalk.o)
 .bss           0x02055a46        0x0 c:/devkitpro2007/devkitarm/bin/../lib/gcc/arm-eabi/4.1.2/../../../../arm-eabi/lib\libc.a(lib_a-fwrite.o)
 .bss           0x02055a46        0x0 c:/devkitpro2007/devkitarm/bin/../lib/gcc/arm-eabi/4.1.2/../../../../arm-eabi/lib\libc.a(lib_a-impure.o)
 .bss           0x02055a46        0x0 c:/devkitpro2007/devkitarm/bin/../lib/gcc/arm-eabi/4.1.2/../../../../arm-eabi/lib\libc.a(lib_a-init.o)
 .bss           0x02055a46        0x0 c:/devkitpro2007/devkitarm/bin/../lib/gcc/arm-eabi/4.1.2/../../../../arm-eabi/lib\libc.a(lib_a-iprintf.o)
 .bss           0x02055a46        0x0 c:/devkitpro2007/devkitarm/bin/../lib/gcc/arm-eabi/4.1.2/../../../../arm-eabi/lib\libc.a(lib_a-makebuf.o)
 .bss           0x02055a46        0x0 c:/devkitpro2007/devkitarm/bin/../lib/gcc/arm-eabi/4.1.2/../../../../arm-eabi/lib\libc.a(lib_a-malloc.o)
 *fill*         0x02055a46        0x2 00
 .bss           0x02055a48       0x34 c:/devkitpro2007/devkitarm/bin/../lib/gcc/arm-eabi/4.1.2/../../../../arm-eabi/lib\libc.a(lib_a-mallocr.o)
                0x02055a48                __malloc_top_pad
                0x02055a4c                __malloc_max_sbrked_mem
                0x02055a54                __malloc_current_mallinfo
                0x02055a50                __malloc_max_total_mem
 .bss           0x02055a7c        0x0 c:/devkitpro2007/devkitarm/bin/../lib/gcc/arm-eabi/4.1.2/../../../../arm-eabi/lib\libc.a(lib_a-memcpy.o)
 .bss           0x02055a7c        0x0 c:/devkitpro2007/devkitarm/bin/../lib/gcc/arm-eabi/4.1.2/../../../../arm-eabi/lib\libc.a(lib_a-memmove.o)
 .bss           0x02055a7c        0x0 c:/devkitpro2007/devkitarm/bin/../lib/gcc/arm-eabi/4.1.2/../../../../arm-eabi/lib\libc.a(lib_a-memset.o)
 .bss           0x02055a7c        0x0 c:/devkitpro2007/devkitarm/bin/../lib/gcc/arm-eabi/4.1.2/../../../../arm-eabi/lib\libc.a(lib_a-mlock.o)
 .bss           0x02055a7c        0x0 c:/devkitpro2007/devkitarm/bin/../lib/gcc/arm-eabi/4.1.2/../../../../arm-eabi/lib\libc.a(lib_a-printf.o)
 .bss           0x02055a7c        0x0 c:/devkitpro2007/devkitarm/bin/../lib/gcc/arm-eabi/4.1.2/../../../../arm-eabi/lib\libc.a(lib_a-refill.o)
 .bss           0x02055a7c        0x0 c:/devkitpro2007/devkitarm/bin/../lib/gcc/arm-eabi/4.1.2/../../../../arm-eabi/lib\libc.a(lib_a-setvbuf.o)
 .bss           0x02055a7c        0x0 c:/devkitpro2007/devkitarm/bin/../lib/gcc/arm-eabi/4.1.2/../../../../arm-eabi/lib\libc.a(lib_a-siscanf.o)
 .bss           0x02055a7c        0x0 c:/devkitpro2007/devkitarm/bin/../lib/gcc/arm-eabi/4.1.2/../../../../arm-eabi/lib\libc.a(lib_a-sprintf.o)
 .bss           0x02055a7c        0x0 c:/devkitpro2007/devkitarm/bin/../lib/gcc/arm-eabi/4.1.2/../../../../arm-eabi/lib\libc.a(lib_a-stdio.o)
 .bss           0x02055a7c        0x0 c:/devkitpro2007/devkitarm/bin/../lib/gcc/arm-eabi/4.1.2/../../../../arm-eabi/lib\libc.a(lib_a-strcasecmp.o)
 .bss           0x02055a7c        0x0 c:/devkitpro2007/devkitarm/bin/../lib/gcc/arm-eabi/4.1.2/../../../../arm-eabi/lib\libc.a(lib_a-strcat.o)
 .bss           0x02055a7c        0x0 c:/devkitpro2007/devkitarm/bin/../lib/gcc/arm-eabi/4.1.2/../../../../arm-eabi/lib\libc.a(lib_a-strchr.o)
 .bss           0x02055a7c        0x0 c:/devkitpro2007/devkitarm/bin/../lib/gcc/arm-eabi/4.1.2/../../../../arm-eabi/lib\libc.a(lib_a-strcmp.o)
 .bss           0x02055a7c        0x0 c:/devkitpro2007/devkitarm/bin/../lib/gcc/arm-eabi/4.1.2/../../../../arm-eabi/lib\libc.a(lib_a-strcpy.o)
 .bss           0x02055a7c        0x0 c:/devkitpro2007/devkitarm/bin/../lib/gcc/arm-eabi/4.1.2/../../../../arm-eabi/lib\libc.a(lib_a-strlen.o)
 .bss           0x02055a7c        0x0 c:/devkitpro2007/devkitarm/bin/../lib/gcc/arm-eabi/4.1.2/../../../../arm-eabi/lib\libc.a(lib_a-strncasecmp.o)
 .bss           0x02055a7c        0x0 c:/devkitpro2007/devkitarm/bin/../lib/gcc/arm-eabi/4.1.2/../../../../arm-eabi/lib\libc.a(lib_a-strncmp.o)
 .bss           0x02055a7c        0x0 c:/devkitpro2007/devkitarm/bin/../lib/gcc/arm-eabi/4.1.2/../../../../arm-eabi/lib\libc.a(lib_a-strncpy.o)
 .bss           0x02055a7c        0x0 c:/devkitpro2007/devkitarm/bin/../lib/gcc/arm-eabi/4.1.2/../../../../arm-eabi/lib\libc.a(lib_a-strnlen.o)
 .bss           0x02055a7c        0x0 c:/devkitpro2007/devkitarm/bin/../lib/gcc/arm-eabi/4.1.2/../../../../arm-eabi/lib\libc.a(lib_a-strpbrk.o)
 .bss           0x02055a7c        0x0 c:/devkitpro2007/devkitarm/bin/../lib/gcc/arm-eabi/4.1.2/../../../../arm-eabi/lib\libc.a(lib_a-strrchr.o)
 .bss           0x02055a7c        0x0 c:/devkitpro2007/devkitarm/bin/../lib/gcc/arm-eabi/4.1.2/../../../../arm-eabi/lib\libc.a(lib_a-strstr.o)
 .bss           0x02055a7c        0x0 c:/devkitpro2007/devkitarm/bin/../lib/gcc/arm-eabi/4.1.2/../../../../arm-eabi/lib\libc.a(lib_a-strupr.o)
 .bss           0x02055a7c        0x0 c:/devkitpro2007/devkitarm/bin/../lib/gcc/arm-eabi/4.1.2/../../../../arm-eabi/lib\libc.a(lib_a-sysstat.o)
 .bss           0x02055a7c        0x0 c:/devkitpro2007/devkitarm/bin/../lib/gcc/arm-eabi/4.1.2/../../../../arm-eabi/lib\libc.a(lib_a-toupper.o)
 .bss           0x02055a7c        0x0 c:/devkitpro2007/devkitarm/bin/../lib/gcc/arm-eabi/4.1.2/../../../../arm-eabi/lib\libc.a(lib_a-vfiprintf.o)
 .bss           0x02055a7c        0x0 c:/devkitpro2007/devkitarm/bin/../lib/gcc/arm-eabi/4.1.2/../../../../arm-eabi/lib\libc.a(lib_a-vfiscanf.o)
 .bss           0x02055a7c        0x0 c:/devkitpro2007/devkitarm/bin/../lib/gcc/arm-eabi/4.1.2/../../../../arm-eabi/lib\libc.a(lib_a-vfprintf.o)
 .bss           0x02055a7c        0x0 c:/devkitpro2007/devkitarm/bin/../lib/gcc/arm-eabi/4.1.2/../../../../arm-eabi/lib\libc.a(lib_a-vsnprintf.o)
 .bss           0x02055a7c        0x0 c:/devkitpro2007/devkitarm/bin/../lib/gcc/arm-eabi/4.1.2/../../../../arm-eabi/lib\libc.a(lib_a-wcrtomb.o)
 .bss           0x02055a7c        0x0 c:/devkitpro2007/devkitarm/bin/../lib/gcc/arm-eabi/4.1.2/../../../../arm-eabi/lib\libc.a(lib_a-wcsrtombs.o)
 .bss           0x02055a7c        0x0 c:/devkitpro2007/devkitarm/bin/../lib/gcc/arm-eabi/4.1.2/../../../../arm-eabi/lib\libc.a(lib_a-wctomb_r.o)
 .bss           0x02055a7c        0x0 c:/devkitpro2007/devkitarm/bin/../lib/gcc/arm-eabi/4.1.2/../../../../arm-eabi/lib\libc.a(lib_a-wsetup.o)
 .bss           0x02055a7c        0x0 c:/devkitpro2007/devkitarm/bin/../lib/gcc/arm-eabi/4.1.2/../../../../arm-eabi/lib\libc.a(lib_a-dtoa.o)
 .bss           0x02055a7c        0x0 c:/devkitpro2007/devkitarm/bin/../lib/gcc/arm-eabi/4.1.2/../../../../arm-eabi/lib\libc.a(lib_a-flags.o)
 .bss           0x02055a7c        0x0 c:/devkitpro2007/devkitarm/bin/../lib/gcc/arm-eabi/4.1.2/../../../../arm-eabi/lib\libc.a(lib_a-fvwrite.o)
 .bss           0x02055a7c        0x0 c:/devkitpro2007/devkitarm/bin/../lib/gcc/arm-eabi/4.1.2/../../../../arm-eabi/lib\libc.a(lib_a-iswspace.o)
 .bss           0x02055a7c        0xc c:/devkitpro2007/devkitarm/bin/../lib/gcc/arm-eabi/4.1.2/../../../../arm-eabi/lib\libc.a(lib_a-locale.o)
                0x02055a7c                __nlocale_changed
                0x02055a80                __mlocale_changed
                0x02055a84                _PathLocale
 .bss           0x02055a88        0x0 c:/devkitpro2007/devkitarm/bin/../lib/gcc/arm-eabi/4.1.2/../../../../arm-eabi/lib\libc.a(lib_a-mbrtowc.o)
 .bss           0x02055a88        0x0 c:/devkitpro2007/devkitarm/bin/../lib/gcc/arm-eabi/4.1.2/../../../../arm-eabi/lib\libc.a(lib_a-mbtowc_r.o)
 .bss           0x02055a88        0x0 c:/devkitpro2007/devkitarm/bin/../lib/gcc/arm-eabi/4.1.2/../../../../arm-eabi/lib\libc.a(lib_a-memchr.o)
 .bss           0x02055a88        0x0 c:/devkitpro2007/devkitarm/bin/../lib/gcc/arm-eabi/4.1.2/../../../../arm-eabi/lib\libc.a(lib_a-mprec.o)
 .bss           0x02055a88        0x0 c:/devkitpro2007/devkitarm/bin/../lib/gcc/arm-eabi/4.1.2/../../../../arm-eabi/lib\libc.a(lib_a-reallocr.o)
 .bss           0x02055a88        0x0 c:/devkitpro2007/devkitarm/bin/../lib/gcc/arm-eabi/4.1.2/../../../../arm-eabi/lib\libc.a(lib_a-s_isinfd.o)
 .bss           0x02055a88        0x0 c:/devkitpro2007/devkitarm/bin/../lib/gcc/arm-eabi/4.1.2/../../../../arm-eabi/lib\libc.a(lib_a-s_isnand.o)
 .bss           0x02055a88        0x0 c:/devkitpro2007/devkitarm/bin/../lib/gcc/arm-eabi/4.1.2/../../../../arm-eabi/lib\libc.a(lib_a-sccl.o)
 .bss           0x02055a88        0x0 c:/devkitpro2007/devkitarm/bin/../lib/gcc/arm-eabi/4.1.2/../../../../arm-eabi/lib\libc.a(lib_a-strtol.o)
 .bss           0x02055a88        0x0 c:/devkitpro2007/devkitarm/bin/../lib/gcc/arm-eabi/4.1.2/../../../../arm-eabi/lib\libc.a(lib_a-strtoul.o)
 .bss           0x02055a88        0x0 c:/devkitpro2007/devkitarm/bin/../lib/gcc/arm-eabi/4.1.2/../../../../arm-eabi/lib\libc.a(lib_a-ungetc.o)
 .bss           0x02055a88        0x0 c:/devkitpro2007/devkitarm/bin/../lib/gcc/arm-eabi/4.1.2/../../../../arm-eabi/lib\libc.a(lib_a-callocr.o)
 .bss           0x02055a88        0x0 c:/devkitpro2007/devkitarm/bin/../lib/gcc/arm-eabi/4.1.2\libgcc.a(_addsubdf3.o)
 .bss           0x02055a88        0x0 c:/devkitpro2007/devkitarm/bin/../lib/gcc/arm-eabi/4.1.2\libgcc.a(_muldivdf3.o)
 .bss           0x02055a88        0x0 c:/devkitpro2007/devkitarm/bin/../lib/gcc/arm-eabi/4.1.2\libgcc.a(_cmpdf2.o)
 .bss           0x02055a88        0x0 c:/devkitpro2007/devkitarm/bin/../lib/gcc/arm-eabi/4.1.2\libgcc.a(_fixdfsi.o)
 .bss           0x02055a88        0x0 c:/devkitpro2007/devkitarm/bin/../lib/gcc/arm-eabi/4.1.2/../../../../arm-eabi/lib\libsysbase.a(iosupport.o)
 .bss           0x02055a88        0x0 c:/devkitpro2007/devkitarm/bin/../lib/gcc/arm-eabi/4.1.2/../../../../arm-eabi/lib\libsysbase.a(close.o)
 .bss           0x02055a88        0x0 c:/devkitpro2007/devkitarm/bin/../lib/gcc/arm-eabi/4.1.2/../../../../arm-eabi/lib\libsysbase.a(fstat.o)
 .bss           0x02055a88        0x0 c:/devkitpro2007/devkitarm/bin/../lib/gcc/arm-eabi/4.1.2/../../../../arm-eabi/lib\libsysbase.a(isatty.o)
 .bss           0x02055a88        0x0 c:/devkitpro2007/devkitarm/bin/../lib/gcc/arm-eabi/4.1.2/../../../../arm-eabi/lib\libsysbase.a(lseek.o)
 .bss           0x02055a88        0x0 c:/devkitpro2007/devkitarm/bin/../lib/gcc/arm-eabi/4.1.2/../../../../arm-eabi/lib\libsysbase.a(open.o)
 .bss           0x02055a88        0x0 c:/devkitpro2007/devkitarm/bin/../lib/gcc/arm-eabi/4.1.2/../../../../arm-eabi/lib\libsysbase.a(read.o)
 .bss           0x02055a88        0x4 c:/devkitpro2007/devkitarm/bin/../lib/gcc/arm-eabi/4.1.2/../../../../arm-eabi/lib\libsysbase.a(sbrk.o)
 .bss           0x02055a8c        0x0 c:/devkitpro2007/devkitarm/bin/../lib/gcc/arm-eabi/4.1.2/../../../../arm-eabi/lib\libsysbase.a(stat.o)
 .bss           0x02055a8c        0x0 c:/devkitpro2007/devkitarm/bin/../lib/gcc/arm-eabi/4.1.2/../../../../arm-eabi/lib\libsysbase.a(times.o)
 .bss           0x02055a8c        0x0 c:/devkitpro2007/devkitarm/bin/../lib/gcc/arm-eabi/4.1.2/../../../../arm-eabi/lib\libsysbase.a(write.o)
 .bss           0x02055a8c        0x8 c:/devkitpro2007/devkitarm/bin/../lib/gcc/arm-eabi/4.1.2/../../../../arm-eabi/lib\libsysbase.a(malloc_vars.o)
                0x02055a90                fake_heap_start
                0x02055a8c                fake_heap_end
 .bss           0x02055a94        0x0 c:/devkitpro2007/devkitarm/bin/../lib/gcc/arm-eabi/4.1.2/../../../../arm-eabi/lib\libsysbase.a(chdir.o)
 .bss           0x02055a94        0x0 c:/devkitpro2007/devkitarm/bin/../lib/gcc/arm-eabi/4.1.2/../../../../arm-eabi/lib\libsysbase.a(dir.o)
 .bss           0x02055a94        0x0 c:/devkitpro2007/devkitarm/bin/../lib/gcc/arm-eabi/4.1.2/../../../../arm-eabi/lib\libsysbase.a(build_argv.o)
 .bss           0x02055a94        0x0 c:/devkitpro2007/devkitarm/bin/../lib/gcc/arm-eabi/4.1.2/../../../../arm-eabi/lib\libc.a(lib_a-errno.o)
 .bss           0x02055a94        0x0 c:/devkitpro2007/devkitarm/bin/../lib/gcc/arm-eabi/4.1.2/crtend.o
 .bss           0x02055a94        0x0 c:/devkitpro2007/devkitarm/bin/../lib/gcc/arm-eabi/4.1.2/crtn.o
 *(COMMON)
 COMMON         0x02055a94     0xcf14 ./SNES_global.o
                0x02055a94                CFG
                0x02055c1c                GFX
                0x02056500                SNES
                0x02062994                APU
 COMMON         0x020629a8        0x4 ./core.o
                0x020629a8                SPC700_emu
 COMMON         0x020629ac    0x61aec ./engine.o
                0x020629ac                interrupted
                0x020629b0                addrbuf
                0x020c4494                OldPC
 COMMON         0x020c4498     0x7d00 ./fs.o
                0x020c4498                logbuf
 COMMON         0x020cc198        0x4 ./gui.o
                0x020cc198                GUI
 COMMON         0x020cc19c       0x20 ./main.o
                0x020cc19c                SPC_list
                0x020cc1a0                screen_mode
                0x020cc1a4                v_blank
                0x020cc1a8                optionsMenu
                0x020cc1ac                mainMenu
                0x020cc1b0                ROM_list
                0x020cc1b4                keys
                0x020cc1b8                ROM
 COMMON         0x020cc1bc     0x1449 ./ppu.o
                0x020cc1bc                bittab8
                0x020cc1fc                old_brightness
                0x020cc200                o
                0x020cc204                sprite_tiles_def
                0x020cc604                tiles_def
                0x020cd604                brightness
 *fill*         0x020cd605        0x3 00
 COMMON         0x020cd608        0x4 c:/devkitpro2007/devkitarm/bin/../lib/gcc/arm-eabi/4.1.2/../../../../arm-eabi/lib\libsysbase.a(times.o)
                0x020cd608                punixTime
                0x020cd60c                . = ALIGN (0x4)
                0x020cd60c                __bss_end = <code 342> (.)
                0x020cd60c                __bss_end__ = __bss_end
                0x020cd60c                _end = .
                0x020cd60c                __end__ = .
                0x020cd60c                PROVIDE (end, _end)

.stab
 *(.stab)

.stabstr
 *(.stabstr)

.stab.excl
 *(.stab.excl)

.stab.exclstr
 *(.stab.exclstr)

.stab.index
 *(.stab.index)

.stab.indexstr
 *(.stab.indexstr)

.comment        0x00000000     0x13dc
 *(.comment)
 .comment       0x00000000       0x29 c:/devkitpro2007/devkitarm/bin/../lib/gcc/arm-eabi/4.1.2/crtbegin.o
 .comment       0x00000029       0x29 ./SNES_global.o
 .comment       0x00000052       0x29 ./apu.o
 .comment       0x0000007b       0x29 ./core.o
 .comment       0x000000a4       0x29 ./engine.o
 .comment       0x000000cd       0x29 ./fs.o
 .comment       0x000000f6       0x29 ./gui.o
 .comment       0x0000011f       0x29 ./main.o
 .comment       0x00000148       0x29 ./memmap.o
 .comment       0x00000171       0x29 ./opcodes.o
 .comment       0x0000019a       0x29 ./ppu.o
 .comment       0x000001c3       0x29 ./snapshot.o
 .comment       0x000001ec       0x29 ./snes.o
 .comment       0x00000215       0x29 ./touch.o
 .comment       0x0000023e       0x29 c:/devkitPro2007/libnds/lib\libfat.a(libfat.o)
 .comment       0x00000267       0x29 c:/devkitPro2007/libnds/lib\libfat.a(partition.o)
 .comment       0x00000290       0x29 c:/devkitPro2007/libnds/lib\libfat.a(disc.o)
 .comment       0x000002b9       0x29 c:/devkitPro2007/libnds/lib\libfat.a(io_m3cf.o)
 .comment       0x000002e2       0x29 c:/devkitPro2007/libnds/lib\libfat.a(io_m3sd.o)
 .comment       0x0000030b       0x29 c:/devkitPro2007/libnds/lib\libfat.a(io_mpcf.o)
 .comment       0x00000334       0x29 c:/devkitPro2007/libnds/lib\libfat.a(io_njsd.o)
 .comment       0x0000035d       0x29 c:/devkitPro2007/libnds/lib\libfat.a(io_nmmc.o)
 .comment       0x00000386       0x29 c:/devkitPro2007/libnds/lib\libfat.a(io_sccf.o)
 .comment       0x000003af       0x29 c:/devkitPro2007/libnds/lib\libfat.a(io_scsd.o)
 .comment       0x000003d8       0x29 c:/devkitPro2007/libnds/lib\libfat.a(io_sd_common.o)
 .comment       0x00000401       0x29 c:/devkitPro2007/libnds/lib\libfat.a(cache.o)
 .comment       0x0000042a       0x29 c:/devkitPro2007/libnds/lib\libfat.a(fatdir.o)
 .comment       0x00000453       0x29 c:/devkitPro2007/libnds/lib\libfat.a(fatfile.o)
 .comment       0x0000047c       0x29 c:/devkitPro2007/libnds/lib\libfat.a(file_allocation_table.o)
 .comment       0x000004a5       0x29 c:/devkitPro2007/libnds/lib\libfat.a(filetime.o)
 .comment       0x000004ce       0x29 c:/devkitPro2007/libnds/lib\libfat.a(io_cf_common.o)
 .comment       0x000004f7       0x29 c:/devkitPro2007/libnds/lib\libfat.a(io_m3_common.o)
 .comment       0x00000520       0x29 c:/devkitPro2007/libnds/lib\libfat.a(io_sc_common.o)
 .comment       0x00000549       0x29 c:/devkitPro2007/libnds/lib\libfat.a(directory.o)
 .comment       0x00000572       0x29 c:/devkitPro2007/libnds/lib\libnds9.a(console.o)
 .comment       0x0000059b       0x29 c:/devkitPro2007/libnds/lib\libnds9.a(initSystem.o)
 .comment       0x000005c4       0x29 c:/devkitPro2007/libnds/lib\libnds9.a(keys.o)
 .comment       0x000005ed       0x29 c:/devkitPro2007/libnds/lib\libnds9.a(video.o)
 .comment       0x00000616       0x29 c:/devkitPro2007/libnds/lib\libnds9.a(card.o)
 .comment       0x0000063f       0x29 c:/devkitPro2007/libnds/lib\libnds9.a(interrupts.o)
 .comment       0x00000668       0x29 c:/devkitpro2007/devkitarm/bin/../lib/gcc/arm-eabi/4.1.2/../../../../arm-eabi/lib\libc.a(lib_a-ctype_.o)
 .comment       0x00000691       0x29 c:/devkitpro2007/devkitarm/bin/../lib/gcc/arm-eabi/4.1.2/../../../../arm-eabi/lib\libc.a(lib_a-fclose.o)
 .comment       0x000006ba       0x29 c:/devkitpro2007/devkitarm/bin/../lib/gcc/arm-eabi/4.1.2/../../../../arm-eabi/lib\libc.a(lib_a-fflush.o)
 .comment       0x000006e3       0x29 c:/devkitpro2007/devkitarm/bin/../lib/gcc/arm-eabi/4.1.2/../../../../arm-eabi/lib\libc.a(lib_a-findfp.o)
 .comment       0x0000070c       0x29 c:/devkitpro2007/devkitarm/bin/../lib/gcc/arm-eabi/4.1.2/../../../../arm-eabi/lib\libc.a(lib_a-fopen.o)
 .comment       0x00000735       0x29 c:/devkitpro2007/devkitarm/bin/../lib/gcc/arm-eabi/4.1.2/../../../../arm-eabi/lib\libc.a(lib_a-fread.o)
 .comment       0x0000075e       0x29 c:/devkitpro2007/devkitarm/bin/../lib/gcc/arm-eabi/4.1.2/../../../../arm-eabi/lib\libc.a(lib_a-freer.o)
 .comment       0x00000787       0x29 c:/devkitpro2007/devkitarm/bin/../lib/gcc/arm-eabi/4.1.2/../../../../arm-eabi/lib\libc.a(lib_a-fseek.o)
 .comment       0x000007b0       0x29 c:/devkitpro2007/devkitarm/bin/../lib/gcc/arm-eabi/4.1.2/../../../../arm-eabi/lib\libc.a(lib_a-fwalk.o)
 .comment       0x000007d9       0x29 c:/devkitpro2007/devkitarm/bin/../lib/gcc/arm-eabi/4.1.2/../../../../arm-eabi/lib\libc.a(lib_a-fwrite.o)
 .comment       0x00000802       0x29 c:/devkitpro2007/devkitarm/bin/../lib/gcc/arm-eabi/4.1.2/../../../../arm-eabi/lib\libc.a(lib_a-impure.o)
 .comment       0x0000082b       0x29 c:/devkitpro2007/devkitarm/bin/../lib/gcc/arm-eabi/4.1.2/../../../../arm-eabi/lib\libc.a(lib_a-init.o)
 .comment       0x00000854       0x29 c:/devkitpro2007/devkitarm/bin/../lib/gcc/arm-eabi/4.1.2/../../../../arm-eabi/lib\libc.a(lib_a-iprintf.o)
 .comment       0x0000087d       0x29 c:/devkitpro2007/devkitarm/bin/../lib/gcc/arm-eabi/4.1.2/../../../../arm-eabi/lib\libc.a(lib_a-makebuf.o)
 .comment       0x000008a6       0x29 c:/devkitpro2007/devkitarm/bin/../lib/gcc/arm-eabi/4.1.2/../../../../arm-eabi/lib\libc.a(lib_a-malloc.o)
 .comment       0x000008cf       0x29 c:/devkitpro2007/devkitarm/bin/../lib/gcc/arm-eabi/4.1.2/../../../../arm-eabi/lib\libc.a(lib_a-mallocr.o)
 .comment       0x000008f8       0x29 c:/devkitpro2007/devkitarm/bin/../lib/gcc/arm-eabi/4.1.2/../../../../arm-eabi/lib\libc.a(lib_a-memcpy.o)
 .comment       0x00000921       0x29 c:/devkitpro2007/devkitarm/bin/../lib/gcc/arm-eabi/4.1.2/../../../../arm-eabi/lib\libc.a(lib_a-memmove.o)
 .comment       0x0000094a       0x29 c:/devkitpro2007/devkitarm/bin/../lib/gcc/arm-eabi/4.1.2/../../../../arm-eabi/lib\libc.a(lib_a-memset.o)
 .comment       0x00000973       0x29 c:/devkitpro2007/devkitarm/bin/../lib/gcc/arm-eabi/4.1.2/../../../../arm-eabi/lib\libc.a(lib_a-mlock.o)
 .comment       0x0000099c       0x29 c:/devkitpro2007/devkitarm/bin/../lib/gcc/arm-eabi/4.1.2/../../../../arm-eabi/lib\libc.a(lib_a-printf.o)
 .comment       0x000009c5       0x29 c:/devkitpro2007/devkitarm/bin/../lib/gcc/arm-eabi/4.1.2/../../../../arm-eabi/lib\libc.a(lib_a-refill.o)
 .comment       0x000009ee       0x29 c:/devkitpro2007/devkitarm/bin/../lib/gcc/arm-eabi/4.1.2/../../../../arm-eabi/lib\libc.a(lib_a-setvbuf.o)
 .comment       0x00000a17       0x29 c:/devkitpro2007/devkitarm/bin/../lib/gcc/arm-eabi/4.1.2/../../../../arm-eabi/lib\libc.a(lib_a-siscanf.o)
 .comment       0x00000a40       0x29 c:/devkitpro2007/devkitarm/bin/../lib/gcc/arm-eabi/4.1.2/../../../../arm-eabi/lib\libc.a(lib_a-sprintf.o)
 .comment       0x00000a69       0x29 c:/devkitpro2007/devkitarm/bin/../lib/gcc/arm-eabi/4.1.2/../../../../arm-eabi/lib\libc.a(lib_a-stdio.o)
 .comment       0x00000a92       0x29 c:/devkitpro2007/devkitarm/bin/../lib/gcc/arm-eabi/4.1.2/../../../../arm-eabi/lib\libc.a(lib_a-strcasecmp.o)
 .comment       0x00000abb       0x29 c:/devkitpro2007/devkitarm/bin/../lib/gcc/arm-eabi/4.1.2/../../../../arm-eabi/lib\libc.a(lib_a-strcat.o)
 .comment       0x00000ae4       0x29 c:/devkitpro2007/devkitarm/bin/../lib/gcc/arm-eabi/4.1.2/../../../../arm-eabi/lib\libc.a(lib_a-strchr.o)
 .comment       0x00000b0d       0x29 c:/devkitpro2007/devkitarm/bin/../lib/gcc/arm-eabi/4.1.2/../../../../arm-eabi/lib\libc.a(lib_a-strcmp.o)
 .comment       0x00000b36       0x29 c:/devkitpro2007/devkitarm/bin/../lib/gcc/arm-eabi/4.1.2/../../../../arm-eabi/lib\libc.a(lib_a-strcpy.o)
 .comment       0x00000b5f       0x29 c:/devkitpro2007/devkitarm/bin/../lib/gcc/arm-eabi/4.1.2/../../../../arm-eabi/lib\libc.a(lib_a-strlen.o)
 .comment       0x00000b88       0x29 c:/devkitpro2007/devkitarm/bin/../lib/gcc/arm-eabi/4.1.2/../../../../arm-eabi/lib\libc.a(lib_a-strncasecmp.o)
 .comment       0x00000bb1       0x29 c:/devkitpro2007/devkitarm/bin/../lib/gcc/arm-eabi/4.1.2/../../../../arm-eabi/lib\libc.a(lib_a-strncmp.o)
 .comment       0x00000bda       0x29 c:/devkitpro2007/devkitarm/bin/../lib/gcc/arm-eabi/4.1.2/../../../../arm-eabi/lib\libc.a(lib_a-strncpy.o)
 .comment       0x00000c03       0x29 c:/devkitpro2007/devkitarm/bin/../lib/gcc/arm-eabi/4.1.2/../../../../arm-eabi/lib\libc.a(lib_a-strnlen.o)
 .comment       0x00000c2c       0x29 c:/devkitpro2007/devkitarm/bin/../lib/gcc/arm-eabi/4.1.2/../../../../arm-eabi/lib\libc.a(lib_a-strpbrk.o)
 .comment       0x00000c55       0x29 c:/devkitpro2007/devkitarm/bin/../lib/gcc/arm-eabi/4.1.2/../../../../arm-eabi/lib\libc.a(lib_a-strrchr.o)
 .comment       0x00000c7e       0x29 c:/devkitpro2007/devkitarm/bin/../lib/gcc/arm-eabi/4.1.2/../../../../arm-eabi/lib\libc.a(lib_a-strstr.o)
 .comment       0x00000ca7       0x29 c:/devkitpro2007/devkitarm/bin/../lib/gcc/arm-eabi/4.1.2/../../../../arm-eabi/lib\libc.a(lib_a-strupr.o)
 .comment       0x00000cd0       0x29 c:/devkitpro2007/devkitarm/bin/../lib/gcc/arm-eabi/4.1.2/../../../../arm-eabi/lib\libc.a(lib_a-sysstat.o)
 .comment       0x00000cf9       0x29 c:/devkitpro2007/devkitarm/bin/../lib/gcc/arm-eabi/4.1.2/../../../../arm-eabi/lib\libc.a(lib_a-toupper.o)
 .comment       0x00000d22       0x29 c:/devkitpro2007/devkitarm/bin/../lib/gcc/arm-eabi/4.1.2/../../../../arm-eabi/lib\libc.a(lib_a-vfiprintf.o)
 .comment       0x00000d4b       0x29 c:/devkitpro2007/devkitarm/bin/../lib/gcc/arm-eabi/4.1.2/../../../../arm-eabi/lib\libc.a(lib_a-vfiscanf.o)
 .comment       0x00000d74       0x29 c:/devkitpro2007/devkitarm/bin/../lib/gcc/arm-eabi/4.1.2/../../../../arm-eabi/lib\libc.a(lib_a-vfprintf.o)
 .comment       0x00000d9d       0x29 c:/devkitpro2007/devkitarm/bin/../lib/gcc/arm-eabi/4.1.2/../../../../arm-eabi/lib\libc.a(lib_a-vsnprintf.o)
 .comment       0x00000dc6       0x29 c:/devkitpro2007/devkitarm/bin/../lib/gcc/arm-eabi/4.1.2/../../../../arm-eabi/lib\libc.a(lib_a-wcrtomb.o)
 .comment       0x00000def       0x29 c:/devkitpro2007/devkitarm/bin/../lib/gcc/arm-eabi/4.1.2/../../../../arm-eabi/lib\libc.a(lib_a-wcsrtombs.o)
 .comment       0x00000e18       0x29 c:/devkitpro2007/devkitarm/bin/../lib/gcc/arm-eabi/4.1.2/../../../../arm-eabi/lib\libc.a(lib_a-wctomb_r.o)
 .comment       0x00000e41       0x29 c:/devkitpro2007/devkitarm/bin/../lib/gcc/arm-eabi/4.1.2/../../../../arm-eabi/lib\libc.a(lib_a-wsetup.o)
 .comment       0x00000e6a       0x29 c:/devkitpro2007/devkitarm/bin/../lib/gcc/arm-eabi/4.1.2/../../../../arm-eabi/lib\libc.a(lib_a-dtoa.o)
 .comment       0x00000e93       0x29 c:/devkitpro2007/devkitarm/bin/../lib/gcc/arm-eabi/4.1.2/../../../../arm-eabi/lib\libc.a(lib_a-flags.o)
 .comment       0x00000ebc       0x29 c:/devkitpro2007/devkitarm/bin/../lib/gcc/arm-eabi/4.1.2/../../../../arm-eabi/lib\libc.a(lib_a-fvwrite.o)
 .comment       0x00000ee5       0x29 c:/devkitpro2007/devkitarm/bin/../lib/gcc/arm-eabi/4.1.2/../../../../arm-eabi/lib\libc.a(lib_a-iswspace.o)
 .comment       0x00000f0e       0x29 c:/devkitpro2007/devkitarm/bin/../lib/gcc/arm-eabi/4.1.2/../../../../arm-eabi/lib\libc.a(lib_a-locale.o)
 .comment       0x00000f37       0x29 c:/devkitpro2007/devkitarm/bin/../lib/gcc/arm-eabi/4.1.2/../../../../arm-eabi/lib\libc.a(lib_a-mbrtowc.o)
 .comment       0x00000f60       0x29 c:/devkitpro2007/devkitarm/bin/../lib/gcc/arm-eabi/4.1.2/../../../../arm-eabi/lib\libc.a(lib_a-mbtowc_r.o)
 .comment       0x00000f89       0x29 c:/devkitpro2007/devkitarm/bin/../lib/gcc/arm-eabi/4.1.2/../../../../arm-eabi/lib\libc.a(lib_a-memchr.o)
 .comment       0x00000fb2       0x29 c:/devkitpro2007/devkitarm/bin/../lib/gcc/arm-eabi/4.1.2/../../../../arm-eabi/lib\libc.a(lib_a-mprec.o)
 .comment       0x00000fdb       0x29 c:/devkitpro2007/devkitarm/bin/../lib/gcc/arm-eabi/4.1.2/../../../../arm-eabi/lib\libc.a(lib_a-reallocr.o)
 .comment       0x00001004       0x29 c:/devkitpro2007/devkitarm/bin/../lib/gcc/arm-eabi/4.1.2/../../../../arm-eabi/lib\libc.a(lib_a-s_isinfd.o)
 .comment       0x0000102d       0x29 c:/devkitpro2007/devkitarm/bin/../lib/gcc/arm-eabi/4.1.2/../../../../arm-eabi/lib\libc.a(lib_a-s_isnand.o)
 .comment       0x00001056       0x29 c:/devkitpro2007/devkitarm/bin/../lib/gcc/arm-eabi/4.1.2/../../../../arm-eabi/lib\libc.a(lib_a-sccl.o)
 .comment       0x0000107f       0x29 c:/devkitpro2007/devkitarm/bin/../lib/gcc/arm-eabi/4.1.2/../../../../arm-eabi/lib\libc.a(lib_a-strtol.o)
 .comment       0x000010a8       0x29 c:/devkitpro2007/devkitarm/bin/../lib/gcc/arm-eabi/4.1.2/../../../../arm-eabi/lib\libc.a(lib_a-strtoul.o)
 .comment       0x000010d1       0x29 c:/devkitpro2007/devkitarm/bin/../lib/gcc/arm-eabi/4.1.2/../../../../arm-eabi/lib\libc.a(lib_a-ungetc.o)
 .comment       0x000010fa       0x29 c:/devkitpro2007/devkitarm/bin/../lib/gcc/arm-eabi/4.1.2/../../../../arm-eabi/lib\libc.a(lib_a-callocr.o)
 .comment       0x00001123       0x29 c:/devkitpro2007/devkitarm/bin/../lib/gcc/arm-eabi/4.1.2/../../../../arm-eabi/lib\libsysbase.a(iosupport.o)
 .comment       0x0000114c       0x29 c:/devkitpro2007/devkitarm/bin/../lib/gcc/arm-eabi/4.1.2/../../../../arm-eabi/lib\libsysbase.a(close.o)
 .comment       0x00001175       0x29 c:/devkitpro2007/devkitarm/bin/../lib/gcc/arm-eabi/4.1.2/../../../../arm-eabi/lib\libsysbase.a(fstat.o)
 .comment       0x0000119e       0x29 c:/devkitpro2007/devkitarm/bin/../lib/gcc/arm-eabi/4.1.2/../../../../arm-eabi/lib\libsysbase.a(isatty.o)
 .comment       0x000011c7       0x29 c:/devkitpro2007/devkitarm/bin/../lib/gcc/arm-eabi/4.1.2/../../../../arm-eabi/lib\libsysbase.a(lseek.o)
 .comment       0x000011f0       0x29 c:/devkitpro2007/devkitarm/bin/../lib/gcc/arm-eabi/4.1.2/../../../../arm-eabi/lib\libsysbase.a(open.o)
 .comment       0x00001219       0x29 c:/devkitpro2007/devkitarm/bin/../lib/gcc/arm-eabi/4.1.2/../../../../arm-eabi/lib\libsysbase.a(read.o)
 .comment       0x00001242       0x29 c:/devkitpro2007/devkitarm/bin/../lib/gcc/arm-eabi/4.1.2/../../../../arm-eabi/lib\libsysbase.a(sbrk.o)
 .comment       0x0000126b       0x29 c:/devkitpro2007/devkitarm/bin/../lib/gcc/arm-eabi/4.1.2/../../../../arm-eabi/lib\libsysbase.a(stat.o)
 .comment       0x00001294       0x29 c:/devkitpro2007/devkitarm/bin/../lib/gcc/arm-eabi/4.1.2/../../../../arm-eabi/lib\libsysbase.a(times.o)
 .comment       0x000012bd       0x29 c:/devkitpro2007/devkitarm/bin/../lib/gcc/arm-eabi/4.1.2/../../../../arm-eabi/lib\libsysbase.a(write.o)
 .comment       0x000012e6       0x29 c:/devkitpro2007/devkitarm/bin/../lib/gcc/arm-eabi/4.1.2/../../../../arm-eabi/lib\libsysbase.a(malloc_vars.o)
 .comment       0x0000130f       0x29 c:/devkitpro2007/devkitarm/bin/../lib/gcc/arm-eabi/4.1.2/../../../../arm-eabi/lib\libsysbase.a(chdir.o)
 .comment       0x00001338       0x29 c:/devkitpro2007/devkitarm/bin/../lib/gcc/arm-eabi/4.1.2/../../../../arm-eabi/lib\libsysbase.a(dir.o)
 .comment       0x00001361       0x29 c:/devkitpro2007/devkitarm/bin/../lib/gcc/arm-eabi/4.1.2/../../../../arm-eabi/lib\libsysbase.a(build_argv.o)
 .comment       0x0000138a       0x29 c:/devkitpro2007/devkitarm/bin/../lib/gcc/arm-eabi/4.1.2/../../../../arm-eabi/lib\libc.a(lib_a-errno.o)
 .comment       0x000013b3       0x29 c:/devkitpro2007/devkitarm/bin/../lib/gcc/arm-eabi/4.1.2/crtend.o

.debug
 *(.debug)

.line
 *(.line)

.debug_srcinfo
 *(.debug_srcinfo)

.debug_sfnames
 *(.debug_sfnames)

.debug_aranges  0x00000000      0x380
 *(.debug_aranges)
 .debug_aranges
                0x00000000       0x20 c:/devkitPro2007/libnds/lib\libfat.a(libfat.o)
 .debug_aranges
                0x00000020       0x20 c:/devkitPro2007/libnds/lib\libfat.a(partition.o)
 .debug_aranges
                0x00000040       0x20 c:/devkitPro2007/libnds/lib\libfat.a(disc.o)
 .debug_aranges
                0x00000060       0x20 c:/devkitPro2007/libnds/lib\libfat.a(io_m3cf.o)
 .debug_aranges
                0x00000080       0x20 c:/devkitPro2007/libnds/lib\libfat.a(io_m3sd.o)
 .debug_aranges
                0x000000a0       0x20 c:/devkitPro2007/libnds/lib\libfat.a(io_mpcf.o)
 .debug_aranges
                0x000000c0       0x20 c:/devkitPro2007/libnds/lib\libfat.a(io_njsd.o)
 .debug_aranges
                0x000000e0       0x20 c:/devkitPro2007/libnds/lib\libfat.a(io_nmmc.o)
 .debug_aranges
                0x00000100       0x20 c:/devkitPro2007/libnds/lib\libfat.a(io_sccf.o)
 .debug_aranges
                0x00000120       0x20 c:/devkitPro2007/libnds/lib\libfat.a(io_scsd.o)
 .debug_aranges
                0x00000140       0x20 c:/devkitPro2007/libnds/lib\libfat.a(io_sd_common.o)
 .debug_aranges
                0x00000160       0x20 c:/devkitPro2007/libnds/lib\libfat.a(io_dldi.o)
 .debug_aranges
                0x00000180       0x20 c:/devkitPro2007/libnds/lib\libfat.a(io_scsd_s.o)
 .debug_aranges
                0x000001a0       0x20 c:/devkitPro2007/libnds/lib\libfat.a(cache.o)
 .debug_aranges
                0x000001c0       0x20 c:/devkitPro2007/libnds/lib\libfat.a(fatdir.o)
 .debug_aranges
                0x000001e0       0x20 c:/devkitPro2007/libnds/lib\libfat.a(fatfile.o)
 .debug_aranges
                0x00000200       0x20 c:/devkitPro2007/libnds/lib\libfat.a(file_allocation_table.o)
 .debug_aranges
                0x00000220       0x20 c:/devkitPro2007/libnds/lib\libfat.a(filetime.o)
 .debug_aranges
                0x00000240       0x20 c:/devkitPro2007/libnds/lib\libfat.a(io_cf_common.o)
 .debug_aranges
                0x00000260       0x20 c:/devkitPro2007/libnds/lib\libfat.a(io_m3_common.o)
 .debug_aranges
                0x00000280       0x20 c:/devkitPro2007/libnds/lib\libfat.a(io_sc_common.o)
 .debug_aranges
                0x000002a0       0x20 c:/devkitPro2007/libnds/lib\libfat.a(directory.o)
 .debug_aranges
                0x000002c0       0x20 c:/devkitPro2007/libnds/lib\libnds9.a(console.o)
 .debug_aranges
                0x000002e0       0x20 c:/devkitPro2007/libnds/lib\libnds9.a(initSystem.o)
 .debug_aranges
                0x00000300       0x20 c:/devkitPro2007/libnds/lib\libnds9.a(keys.o)
 .debug_aranges
                0x00000320       0x20 c:/devkitPro2007/libnds/lib\libnds9.a(video.o)
 .debug_aranges
                0x00000340       0x20 c:/devkitPro2007/libnds/lib\libnds9.a(card.o)
 .debug_aranges
                0x00000360       0x20 c:/devkitPro2007/libnds/lib\libnds9.a(interrupts.o)

.debug_pubnames
                0x00000000     0x1007
 *(.debug_pubnames)
 .debug_pubnames
                0x00000000       0xb6 c:/devkitPro2007/libnds/lib\libfat.a(libfat.o)
 .debug_pubnames
                0x000000b6      0x129 c:/devkitPro2007/libnds/lib\libfat.a(partition.o)
 .debug_pubnames
                0x000001df       0x84 c:/devkitPro2007/libnds/lib\libfat.a(disc.o)
 .debug_pubnames
                0x00000263       0x31 c:/devkitPro2007/libnds/lib\libfat.a(io_m3cf.o)
 .debug_pubnames
                0x00000294       0xd7 c:/devkitPro2007/libnds/lib\libfat.a(io_m3sd.o)
 .debug_pubnames
                0x0000036b       0x31 c:/devkitPro2007/libnds/lib\libfat.a(io_mpcf.o)
 .debug_pubnames
                0x0000039c       0xd7 c:/devkitPro2007/libnds/lib\libfat.a(io_njsd.o)
 .debug_pubnames
                0x00000473       0xc5 c:/devkitPro2007/libnds/lib\libfat.a(io_nmmc.o)
 .debug_pubnames
                0x00000538       0x31 c:/devkitPro2007/libnds/lib\libfat.a(io_sccf.o)
 .debug_pubnames
                0x00000569       0xd7 c:/devkitPro2007/libnds/lib\libfat.a(io_scsd.o)
 .debug_pubnames
                0x00000640       0x3e c:/devkitPro2007/libnds/lib\libfat.a(io_sd_common.o)
 .debug_pubnames
                0x0000067e       0xe0 c:/devkitPro2007/libnds/lib\libfat.a(cache.o)
 .debug_pubnames
                0x0000075e       0xc6 c:/devkitPro2007/libnds/lib\libfat.a(fatdir.o)
 .debug_pubnames
                0x00000824       0x75 c:/devkitPro2007/libnds/lib\libfat.a(fatfile.o)
 .debug_pubnames
                0x00000899       0x9d c:/devkitPro2007/libnds/lib\libfat.a(file_allocation_table.o)
 .debug_pubnames
                0x00000936       0x70 c:/devkitPro2007/libnds/lib\libfat.a(filetime.o)
 .debug_pubnames
                0x000009a6       0x93 c:/devkitPro2007/libnds/lib\libfat.a(io_cf_common.o)
 .debug_pubnames
                0x00000a39       0x25 c:/devkitPro2007/libnds/lib\libfat.a(io_m3_common.o)
 .debug_pubnames
                0x00000a5e       0x25 c:/devkitPro2007/libnds/lib\libfat.a(io_sc_common.o)
 .debug_pubnames
                0x00000a83      0x1a0 c:/devkitPro2007/libnds/lib\libfat.a(directory.o)
 .debug_pubnames
                0x00000c23       0x9f c:/devkitPro2007/libnds/lib\libnds9.a(console.o)
 .debug_pubnames
                0x00000cc2       0x21 c:/devkitPro2007/libnds/lib\libnds9.a(initSystem.o)
 .debug_pubnames
                0x00000ce3       0x69 c:/devkitPro2007/libnds/lib\libnds9.a(keys.o)
 .debug_pubnames
                0x00000d4c       0xf1 c:/devkitPro2007/libnds/lib\libnds9.a(video.o)
 .debug_pubnames
                0x00000e3d      0x14a c:/devkitPro2007/libnds/lib\libnds9.a(card.o)
 .debug_pubnames
                0x00000f87       0x80 c:/devkitPro2007/libnds/lib\libnds9.a(interrupts.o)

.debug_info     0x00000000     0xccfc
 *(.debug_info)
 .debug_info    0x00000000     0x106e c:/devkitPro2007/libnds/lib\libfat.a(libfat.o)
 .debug_info    0x0000106e      0x8bb c:/devkitPro2007/libnds/lib\libfat.a(partition.o)
 .debug_info    0x00001929      0x3a4 c:/devkitPro2007/libnds/lib\libfat.a(disc.o)
 .debug_info    0x00001ccd      0x2a0 c:/devkitPro2007/libnds/lib\libfat.a(io_m3cf.o)
 .debug_info    0x00001f6d      0x824 c:/devkitPro2007/libnds/lib\libfat.a(io_m3sd.o)
 .debug_info    0x00002791      0x2a0 c:/devkitPro2007/libnds/lib\libfat.a(io_mpcf.o)
 .debug_info    0x00002a31      0x9d3 c:/devkitPro2007/libnds/lib\libfat.a(io_njsd.o)
 .debug_info    0x00003404      0xac9 c:/devkitPro2007/libnds/lib\libfat.a(io_nmmc.o)
 .debug_info    0x00003ecd      0x2a0 c:/devkitPro2007/libnds/lib\libfat.a(io_sccf.o)
 .debug_info    0x0000416d      0x6c4 c:/devkitPro2007/libnds/lib\libfat.a(io_scsd.o)
 .debug_info    0x00004831      0x299 c:/devkitPro2007/libnds/lib\libfat.a(io_sd_common.o)
 .debug_info    0x00004aca       0x8c c:/devkitPro2007/libnds/lib\libfat.a(io_dldi.o)
 .debug_info    0x00004b56       0x8e c:/devkitPro2007/libnds/lib\libfat.a(io_scsd_s.o)
 .debug_info    0x00004be4      0x767 c:/devkitPro2007/libnds/lib\libfat.a(cache.o)
 .debug_info    0x0000534b     0x154e c:/devkitPro2007/libnds/lib\libfat.a(fatdir.o)
 .debug_info    0x00006899     0x19bd c:/devkitPro2007/libnds/lib\libfat.a(fatfile.o)
 .debug_info    0x00008256      0x6f1 c:/devkitPro2007/libnds/lib\libfat.a(file_allocation_table.o)
 .debug_info    0x00008947      0x1a5 c:/devkitPro2007/libnds/lib\libfat.a(filetime.o)
 .debug_info    0x00008aec      0x31a c:/devkitPro2007/libnds/lib\libfat.a(io_cf_common.o)
 .debug_info    0x00008e06       0xd8 c:/devkitPro2007/libnds/lib\libfat.a(io_m3_common.o)
 .debug_info    0x00008ede       0xb8 c:/devkitPro2007/libnds/lib\libfat.a(io_sc_common.o)
 .debug_info    0x00008f96     0x113d c:/devkitPro2007/libnds/lib\libfat.a(directory.o)
 .debug_info    0x0000a0d3     0x1228 c:/devkitPro2007/libnds/lib\libnds9.a(console.o)
 .debug_info    0x0000b2fb      0x54e c:/devkitPro2007/libnds/lib\libnds9.a(initSystem.o)
 .debug_info    0x0000b849      0x4ea c:/devkitPro2007/libnds/lib\libnds9.a(keys.o)
 .debug_info    0x0000bd33      0x579 c:/devkitPro2007/libnds/lib\libnds9.a(video.o)
 .debug_info    0x0000c2ac      0x805 c:/devkitPro2007/libnds/lib\libnds9.a(card.o)
 .debug_info    0x0000cab1      0x24b c:/devkitPro2007/libnds/lib\libnds9.a(interrupts.o)

.debug_abbrev   0x00000000     0x2f02
 *(.debug_abbrev)
 .debug_abbrev  0x00000000      0x1d4 c:/devkitPro2007/libnds/lib\libfat.a(libfat.o)
 .debug_abbrev  0x000001d4      0x264 c:/devkitPro2007/libnds/lib\libfat.a(partition.o)
 .debug_abbrev  0x00000438      0x15e c:/devkitPro2007/libnds/lib\libfat.a(disc.o)
 .debug_abbrev  0x00000596       0xfa c:/devkitPro2007/libnds/lib\libfat.a(io_m3cf.o)
 .debug_abbrev  0x00000690      0x2f5 c:/devkitPro2007/libnds/lib\libfat.a(io_m3sd.o)
 .debug_abbrev  0x00000985       0xfa c:/devkitPro2007/libnds/lib\libfat.a(io_mpcf.o)
 .debug_abbrev  0x00000a7f      0x2d0 c:/devkitPro2007/libnds/lib\libfat.a(io_njsd.o)
 .debug_abbrev  0x00000d4f      0x2b0 c:/devkitPro2007/libnds/lib\libfat.a(io_nmmc.o)
 .debug_abbrev  0x00000fff       0xfa c:/devkitPro2007/libnds/lib\libfat.a(io_sccf.o)
 .debug_abbrev  0x000010f9      0x270 c:/devkitPro2007/libnds/lib\libfat.a(io_scsd.o)
 .debug_abbrev  0x00001369      0x10f c:/devkitPro2007/libnds/lib\libfat.a(io_sd_common.o)
 .debug_abbrev  0x00001478       0x14 c:/devkitPro2007/libnds/lib\libfat.a(io_dldi.o)
 .debug_abbrev  0x0000148c       0x14 c:/devkitPro2007/libnds/lib\libfat.a(io_scsd_s.o)
 .debug_abbrev  0x000014a0      0x1ca c:/devkitPro2007/libnds/lib\libfat.a(cache.o)
 .debug_abbrev  0x0000166a      0x303 c:/devkitPro2007/libnds/lib\libfat.a(fatdir.o)
 .debug_abbrev  0x0000196d      0x348 c:/devkitPro2007/libnds/lib\libfat.a(fatfile.o)
 .debug_abbrev  0x00001cb5      0x1cc c:/devkitPro2007/libnds/lib\libfat.a(file_allocation_table.o)
 .debug_abbrev  0x00001e81       0xac c:/devkitPro2007/libnds/lib\libfat.a(filetime.o)
 .debug_abbrev  0x00001f2d      0x15b c:/devkitPro2007/libnds/lib\libfat.a(io_cf_common.o)
 .debug_abbrev  0x00002088       0x72 c:/devkitPro2007/libnds/lib\libfat.a(io_m3_common.o)
 .debug_abbrev  0x000020fa       0x7a c:/devkitPro2007/libnds/lib\libfat.a(io_sc_common.o)
 .debug_abbrev  0x00002174      0x323 c:/devkitPro2007/libnds/lib\libfat.a(directory.o)
 .debug_abbrev  0x00002497      0x34c c:/devkitPro2007/libnds/lib\libnds9.a(console.o)
 .debug_abbrev  0x000027e3      0x1a5 c:/devkitPro2007/libnds/lib\libnds9.a(initSystem.o)
 .debug_abbrev  0x00002988      0x173 c:/devkitPro2007/libnds/lib\libnds9.a(keys.o)
 .debug_abbrev  0x00002afb       0xbf c:/devkitPro2007/libnds/lib\libnds9.a(video.o)
 .debug_abbrev  0x00002bba      0x213 c:/devkitPro2007/libnds/lib\libnds9.a(card.o)
 .debug_abbrev  0x00002dcd      0x135 c:/devkitPro2007/libnds/lib\libnds9.a(interrupts.o)

.debug_line     0x00000000     0x3a09
 *(.debug_line)
 .debug_line    0x00000000      0x261 c:/devkitPro2007/libnds/lib\libfat.a(libfat.o)
 .debug_line    0x00000261      0x2e7 c:/devkitPro2007/libnds/lib\libfat.a(partition.o)
 .debug_line    0x00000548      0x154 c:/devkitPro2007/libnds/lib\libfat.a(disc.o)
 .debug_line    0x0000069c       0xc0 c:/devkitPro2007/libnds/lib\libfat.a(io_m3cf.o)
 .debug_line    0x0000075c      0x200 c:/devkitPro2007/libnds/lib\libfat.a(io_m3sd.o)
 .debug_line    0x0000095c       0xbf c:/devkitPro2007/libnds/lib\libfat.a(io_mpcf.o)
 .debug_line    0x00000a1b      0x324 c:/devkitPro2007/libnds/lib\libfat.a(io_njsd.o)
 .debug_line    0x00000d3f      0x2d8 c:/devkitPro2007/libnds/lib\libfat.a(io_nmmc.o)
 .debug_line    0x00001017       0xc0 c:/devkitPro2007/libnds/lib\libfat.a(io_sccf.o)
 .debug_line    0x000010d7      0x1b7 c:/devkitPro2007/libnds/lib\libfat.a(io_scsd.o)
 .debug_line    0x0000128e      0x11f c:/devkitPro2007/libnds/lib\libfat.a(io_sd_common.o)
 .debug_line    0x000013ad       0x6e c:/devkitPro2007/libnds/lib\libfat.a(io_dldi.o)
 .debug_line    0x0000141b       0x9b c:/devkitPro2007/libnds/lib\libfat.a(io_scsd_s.o)
 .debug_line    0x000014b6      0x22f c:/devkitPro2007/libnds/lib\libfat.a(cache.o)
 .debug_line    0x000016e5      0x40d c:/devkitPro2007/libnds/lib\libfat.a(fatdir.o)
 .debug_line    0x00001af2      0x658 c:/devkitPro2007/libnds/lib\libfat.a(fatfile.o)
 .debug_line    0x0000214a      0x1ee c:/devkitPro2007/libnds/lib\libfat.a(file_allocation_table.o)
 .debug_line    0x00002338      0x114 c:/devkitPro2007/libnds/lib\libfat.a(filetime.o)
 .debug_line    0x0000244c      0x180 c:/devkitPro2007/libnds/lib\libfat.a(io_cf_common.o)
 .debug_line    0x000025cc       0xb6 c:/devkitPro2007/libnds/lib\libfat.a(io_m3_common.o)
 .debug_line    0x00002682       0xa7 c:/devkitPro2007/libnds/lib\libfat.a(io_sc_common.o)
 .debug_line    0x00002729      0x653 c:/devkitPro2007/libnds/lib\libfat.a(directory.o)
 .debug_line    0x00002d7c      0x3a2 c:/devkitPro2007/libnds/lib\libnds9.a(console.o)
 .debug_line    0x0000311e      0x20b c:/devkitPro2007/libnds/lib\libnds9.a(initSystem.o)
 .debug_line    0x00003329      0x12b c:/devkitPro2007/libnds/lib\libnds9.a(keys.o)
 .debug_line    0x00003454      0x15e c:/devkitPro2007/libnds/lib\libnds9.a(video.o)
 .debug_line    0x000035b2      0x2fa c:/devkitPro2007/libnds/lib\libnds9.a(card.o)
 .debug_line    0x000038ac      0x15d c:/devkitPro2007/libnds/lib\libnds9.a(interrupts.o)

.debug_frame    0x00000000     0x15b8
 *(.debug_frame)
 .debug_frame   0x00000000       0xbc c:/devkitPro2007/libnds/lib\libfat.a(libfat.o)
 .debug_frame   0x000000bc      0x10c c:/devkitPro2007/libnds/lib\libfat.a(partition.o)
 .debug_frame   0x000001c8       0x64 c:/devkitPro2007/libnds/lib\libfat.a(disc.o)
 .debug_frame   0x0000022c       0x28 c:/devkitPro2007/libnds/lib\libfat.a(io_m3cf.o)
 .debug_frame   0x00000254      0x1b0 c:/devkitPro2007/libnds/lib\libfat.a(io_m3sd.o)
 .debug_frame   0x00000404       0x28 c:/devkitPro2007/libnds/lib\libfat.a(io_mpcf.o)
 .debug_frame   0x0000042c      0x178 c:/devkitPro2007/libnds/lib\libfat.a(io_njsd.o)
 .debug_frame   0x000005a4      0x138 c:/devkitPro2007/libnds/lib\libfat.a(io_nmmc.o)
 .debug_frame   0x000006dc       0x28 c:/devkitPro2007/libnds/lib\libfat.a(io_sccf.o)
 .debug_frame   0x00000704      0x174 c:/devkitPro2007/libnds/lib\libfat.a(io_scsd.o)
 .debug_frame   0x00000878       0x88 c:/devkitPro2007/libnds/lib\libfat.a(io_sd_common.o)
 .debug_frame   0x00000900      0x110 c:/devkitPro2007/libnds/lib\libfat.a(cache.o)
 .debug_frame   0x00000a10      0x154 c:/devkitPro2007/libnds/lib\libfat.a(fatdir.o)
 .debug_frame   0x00000b64      0x104 c:/devkitPro2007/libnds/lib\libfat.a(fatfile.o)
 .debug_frame   0x00000c68       0xe8 c:/devkitPro2007/libnds/lib\libfat.a(file_allocation_table.o)
 .debug_frame   0x00000d50       0x5c c:/devkitPro2007/libnds/lib\libfat.a(filetime.o)
 .debug_frame   0x00000dac       0xbc c:/devkitPro2007/libnds/lib\libfat.a(io_cf_common.o)
 .debug_frame   0x00000e68       0x38 c:/devkitPro2007/libnds/lib\libfat.a(io_m3_common.o)
 .debug_frame   0x00000ea0       0x20 c:/devkitPro2007/libnds/lib\libfat.a(io_sc_common.o)
 .debug_frame   0x00000ec0      0x208 c:/devkitPro2007/libnds/lib\libfat.a(directory.o)
 .debug_frame   0x000010c8      0x108 c:/devkitPro2007/libnds/lib\libnds9.a(console.o)
 .debug_frame   0x000011d0       0x28 c:/devkitPro2007/libnds/lib\libnds9.a(initSystem.o)
 .debug_frame   0x000011f8       0x80 c:/devkitPro2007/libnds/lib\libnds9.a(keys.o)
 .debug_frame   0x00001278       0xdc c:/devkitPro2007/libnds/lib\libnds9.a(video.o)
 .debug_frame   0x00001354      0x1b4 c:/devkitPro2007/libnds/lib\libnds9.a(card.o)
 .debug_frame   0x00001508       0xb0 c:/devkitPro2007/libnds/lib\libnds9.a(interrupts.o)

.debug_str      0x00000000     0x3123
 *(.debug_str)
 .debug_str     0x00000000      0x75b c:/devkitPro2007/libnds/lib\libfat.a(libfat.o)
                                0x859 (size before relaxing)
 .debug_str     0x0000075b      0x375 c:/devkitPro2007/libnds/lib\libfat.a(partition.o)
                                0x5e4 (size before relaxing)
 .debug_str     0x00000ad0      0x134 c:/devkitPro2007/libnds/lib\libfat.a(disc.o)
                                0x323 (size before relaxing)
 .debug_str     0x00000c04       0x95 c:/devkitPro2007/libnds/lib\libfat.a(io_m3cf.o)
                                0x290 (size before relaxing)
 .debug_str     0x00000c99      0x24d c:/devkitPro2007/libnds/lib\libfat.a(io_m3sd.o)
                                0x46d (size before relaxing)
 .debug_str     0x00000ee6       0x5b c:/devkitPro2007/libnds/lib\libfat.a(io_mpcf.o)
                                0x290 (size before relaxing)
 .debug_str     0x00000f41      0x200 c:/devkitPro2007/libnds/lib\libfat.a(io_njsd.o)
                                0x454 (size before relaxing)
 .debug_str     0x00001141      0x1b8 c:/devkitPro2007/libnds/lib\libfat.a(io_nmmc.o)
                                0x3d7 (size before relaxing)
 .debug_str     0x000012f9       0x5b c:/devkitPro2007/libnds/lib\libfat.a(io_sccf.o)
                                0x290 (size before relaxing)
 .debug_str     0x00001354      0x1b0 c:/devkitPro2007/libnds/lib\libfat.a(io_scsd.o)
                                0x414 (size before relaxing)
 .debug_str     0x00001504       0xcb c:/devkitPro2007/libnds/lib\libfat.a(io_sd_common.o)
                                0x203 (size before relaxing)
 .debug_str     0x000015cf      0x13a c:/devkitPro2007/libnds/lib\libfat.a(cache.o)
                                0x3d9 (size before relaxing)
 .debug_str     0x00001709      0x24a c:/devkitPro2007/libnds/lib\libfat.a(fatdir.o)
                                0xa3b (size before relaxing)
 .debug_str     0x00001953      0x19e c:/devkitPro2007/libnds/lib\libfat.a(fatfile.o)
                                0xaa7 (size before relaxing)
 .debug_str     0x00001af1      0x109 c:/devkitPro2007/libnds/lib\libfat.a(file_allocation_table.o)
                                0x4be (size before relaxing)
 .debug_str     0x00001bfa       0x9c c:/devkitPro2007/libnds/lib\libfat.a(filetime.o)
                                0x1a0 (size before relaxing)
 .debug_str     0x00001c96       0xb4 c:/devkitPro2007/libnds/lib\libfat.a(io_cf_common.o)
                                0x20a (size before relaxing)
 .debug_str     0x00001d4a       0x67 c:/devkitPro2007/libnds/lib\libfat.a(io_m3_common.o)
                                0x140 (size before relaxing)
 .debug_str     0x00001db1       0x5f c:/devkitPro2007/libnds/lib\libfat.a(io_sc_common.o)
                                0x138 (size before relaxing)
 .debug_str     0x00001e10      0x369 c:/devkitPro2007/libnds/lib\libfat.a(directory.o)
                                0x8a5 (size before relaxing)
 .debug_str     0x00002179      0x1f3 c:/devkitPro2007/libnds/lib\libnds9.a(console.o)
                                0x7f8 (size before relaxing)
 .debug_str     0x0000236c      0x17a c:/devkitPro2007/libnds/lib\libnds9.a(initSystem.o)
                                0x2f6 (size before relaxing)
 .debug_str     0x000024e6       0xa0 c:/devkitPro2007/libnds/lib\libnds9.a(keys.o)
                                0x312 (size before relaxing)
 .debug_str     0x00002586      0x932 c:/devkitPro2007/libnds/lib\libnds9.a(video.o)
                                0xa1e (size before relaxing)
 .debug_str     0x00002eb8      0x1ad c:/devkitPro2007/libnds/lib\libnds9.a(card.o)
                                0x30e (size before relaxing)
 .debug_str     0x00003065       0xbe c:/devkitPro2007/libnds/lib\libnds9.a(interrupts.o)
                                0x1b4 (size before relaxing)

.debug_loc      0x00000000     0x7003
 *(.debug_loc)
 .debug_loc     0x00000000      0x216 c:/devkitPro2007/libnds/lib\libfat.a(libfat.o)
 .debug_loc     0x00000216      0x42f c:/devkitPro2007/libnds/lib\libfat.a(partition.o)
 .debug_loc     0x00000645       0xca c:/devkitPro2007/libnds/lib\libfat.a(disc.o)
 .debug_loc     0x0000070f       0x2b c:/devkitPro2007/libnds/lib\libfat.a(io_m3cf.o)
 .debug_loc     0x0000073a      0x6cf c:/devkitPro2007/libnds/lib\libfat.a(io_m3sd.o)
 .debug_loc     0x00000e09       0x2b c:/devkitPro2007/libnds/lib\libfat.a(io_mpcf.o)
 .debug_loc     0x00000e34      0x866 c:/devkitPro2007/libnds/lib\libfat.a(io_njsd.o)
 .debug_loc     0x0000169a      0x4d6 c:/devkitPro2007/libnds/lib\libfat.a(io_nmmc.o)
 .debug_loc     0x00001b70       0x2b c:/devkitPro2007/libnds/lib\libfat.a(io_sccf.o)
 .debug_loc     0x00001b9b      0x619 c:/devkitPro2007/libnds/lib\libfat.a(io_scsd.o)
 .debug_loc     0x000021b4      0x2e8 c:/devkitPro2007/libnds/lib\libfat.a(io_sd_common.o)
 .debug_loc     0x0000249c      0x71c c:/devkitPro2007/libnds/lib\libfat.a(cache.o)
 .debug_loc     0x00002bb8      0x9a3 c:/devkitPro2007/libnds/lib\libfat.a(fatdir.o)
 .debug_loc     0x0000355b      0xe64 c:/devkitPro2007/libnds/lib\libfat.a(fatfile.o)
 .debug_loc     0x000043bf      0x630 c:/devkitPro2007/libnds/lib\libfat.a(file_allocation_table.o)
 .debug_loc     0x000049ef       0xac c:/devkitPro2007/libnds/lib\libfat.a(filetime.o)
 .debug_loc     0x00004a9b      0x421 c:/devkitPro2007/libnds/lib\libfat.a(io_cf_common.o)
 .debug_loc     0x00004ebc       0x50 c:/devkitPro2007/libnds/lib\libfat.a(io_m3_common.o)
 .debug_loc     0x00004f0c      0xf1c c:/devkitPro2007/libnds/lib\libfat.a(directory.o)
 .debug_loc     0x00005e28      0x762 c:/devkitPro2007/libnds/lib\libnds9.a(console.o)
 .debug_loc     0x0000658a       0x32 c:/devkitPro2007/libnds/lib\libnds9.a(initSystem.o)
 .debug_loc     0x000065bc       0x3e c:/devkitPro2007/libnds/lib\libnds9.a(keys.o)
 .debug_loc     0x000065fa      0x129 c:/devkitPro2007/libnds/lib\libnds9.a(video.o)
 .debug_loc     0x00006723      0x7ab c:/devkitPro2007/libnds/lib\libnds9.a(card.o)
 .debug_loc     0x00006ece      0x135 c:/devkitPro2007/libnds/lib\libnds9.a(interrupts.o)

.debug_macinfo
 *(.debug_macinfo)

.debug_weaknames
 *(.debug_weaknames)

.debug_funcnames
 *(.debug_funcnames)

.debug_typenames
 *(.debug_typenames)

.debug_varnames
 *(.debug_varnames)

.stack          0x00080000        0x0
                0x00080000                _stack = .
 *(.stack)
LOAD c:/devkitpro2007/devkitarm/bin/../lib/gcc/arm-eabi/4.1.2/../../../../arm-eabi/lib/ds_arm9_crt0.o
LOAD c:/devkitpro2007/devkitarm/bin/../lib/gcc/arm-eabi/4.1.2/crti.o
LOAD c:/devkitpro2007/devkitarm/bin/../lib/gcc/arm-eabi/4.1.2/crtbegin.o
LOAD ./SNES_global.o
LOAD ./apu.o
LOAD ./core.o
LOAD ./engine.o
LOAD ./fs.o
LOAD ./gui.o
LOAD ./intr.o
LOAD ./main.o
LOAD ./memmap.o
LOAD ./opcodes.o
LOAD ./opcodes2.o
LOAD ./ppu.o
LOAD ./snapshot.o
LOAD ./snes.o
LOAD ./touch.o
LOAD c:/devkitPro2007/libnds/lib\libfat.a
LOAD c:/devkitPro2007/libnds/lib\libnds9.a
START GROUP
LOAD c:/devkitpro2007/devkitarm/bin/../lib/gcc/arm-eabi/4.1.2\libgcc.a
LOAD c:/devkitpro2007/devkitarm/bin/../lib/gcc/arm-eabi/4.1.2/../../../../arm-eabi/lib\libc.a
END GROUP
START GROUP
LOAD c:/devkitpro2007/devkitarm/bin/../lib/gcc/arm-eabi/4.1.2/../../../../arm-eabi/lib\libsysbase.a
LOAD c:/devkitpro2007/devkitarm/bin/../lib/gcc/arm-eabi/4.1.2/../../../../arm-eabi/lib\libc.a
END GROUP
LOAD c:/devkitpro2007/devkitarm/bin/../lib/gcc/arm-eabi/4.1.2/crtend.o
LOAD c:/devkitpro2007/devkitarm/bin/../lib/gcc/arm-eabi/4.1.2/crtn.o
OUTPUT(arm9.elf elf32-littlearm)

.ARM.attributes
                0x00000000       0x10
 .ARM.attributes
                0x00000000       0x1f c:/devkitpro2007/devkitarm/bin/../lib/gcc/arm-eabi/4.1.2/../../../../arm-eabi/lib/ds_arm9_crt0.o
 .ARM.attributes
                0x0000001f       0x1e c:/devkitpro2007/devkitarm/bin/../lib/gcc/arm-eabi/4.1.2/crti.o
 .ARM.attributes
                0x0000003d       0x1e c:/devkitpro2007/devkitarm/bin/../lib/gcc/arm-eabi/4.1.2/crtbegin.o
 .ARM.attributes
                0x0000005b       0x1d ./SNES_global.o
 .ARM.attributes
                0x00000078       0x1f ./apu.o
 .ARM.attributes
                0x00000097       0x1f ./core.o
 .ARM.attributes
                0x000000b6       0x1f ./engine.o
 .ARM.attributes
                0x000000d5       0x1f ./fs.o
 .ARM.attributes
                0x000000f4       0x1f ./gui.o
 .ARM.attributes
                0x00000113       0x14 ./intr.o
 .ARM.attributes
                0x00000127       0x1f ./main.o
 .ARM.attributes
                0x00000146       0x1f ./memmap.o
 .ARM.attributes
                0x00000165       0x1f ./opcodes.o
 .ARM.attributes
                0x00000184       0x14 ./opcodes2.o
 .ARM.attributes
                0x00000198       0x1f ./ppu.o
 .ARM.attributes
                0x000001b7       0x1f ./snapshot.o
 .ARM.attributes
                0x000001d6       0x1f ./snes.o
 .ARM.attributes
                0x000001f5       0x1f ./touch.o
 .ARM.attributes
                0x00000214       0x19 c:/devkitPro2007/libnds/lib\libfat.a(libfat.o)
 .ARM.attributes
                0x0000022d       0x19 c:/devkitPro2007/libnds/lib\libfat.a(partition.o)
 .ARM.attributes
                0x00000246       0x19 c:/devkitPro2007/libnds/lib\libfat.a(disc.o)
 .ARM.attributes
                0x0000025f       0x19 c:/devkitPro2007/libnds/lib\libfat.a(io_m3cf.o)
 .ARM.attributes
                0x00000278       0x19 c:/devkitPro2007/libnds/lib\libfat.a(io_m3sd.o)
 .ARM.attributes
                0x00000291       0x19 c:/devkitPro2007/libnds/lib\libfat.a(io_mpcf.o)
 .ARM.attributes
                0x000002aa       0x19 c:/devkitPro2007/libnds/lib\libfat.a(io_njsd.o)
 .ARM.attributes
                0x000002c3       0x19 c:/devkitPro2007/libnds/lib\libfat.a(io_nmmc.o)
 .ARM.attributes
                0x000002dc       0x19 c:/devkitPro2007/libnds/lib\libfat.a(io_sccf.o)
 .ARM.attributes
                0x000002f5       0x19 c:/devkitPro2007/libnds/lib\libfat.a(io_scsd.o)
 .ARM.attributes
                0x0000030e       0x19 c:/devkitPro2007/libnds/lib\libfat.a(io_sd_common.o)
 .ARM.attributes
                0x00000327       0x1e c:/devkitPro2007/libnds/lib\libfat.a(io_dldi.o)
 .ARM.attributes
                0x00000345       0x1e c:/devkitPro2007/libnds/lib\libfat.a(io_scsd_s.o)
 .ARM.attributes
                0x00000363       0x19 c:/devkitPro2007/libnds/lib\libfat.a(cache.o)
 .ARM.attributes
                0x0000037c       0x19 c:/devkitPro2007/libnds/lib\libfat.a(fatdir.o)
 .ARM.attributes
                0x00000395       0x19 c:/devkitPro2007/libnds/lib\libfat.a(fatfile.o)
 .ARM.attributes
                0x000003ae       0x19 c:/devkitPro2007/libnds/lib\libfat.a(file_allocation_table.o)
 .ARM.attributes
                0x000003c7       0x19 c:/devkitPro2007/libnds/lib\libfat.a(filetime.o)
 .ARM.attributes
                0x000003e0       0x19 c:/devkitPro2007/libnds/lib\libfat.a(io_cf_common.o)
 .ARM.attributes
                0x000003f9       0x19 c:/devkitPro2007/libnds/lib\libfat.a(io_m3_common.o)
 .ARM.attributes
                0x00000412       0x19 c:/devkitPro2007/libnds/lib\libfat.a(io_sc_common.o)
 .ARM.attributes
                0x0000042b       0x19 c:/devkitPro2007/libnds/lib\libfat.a(directory.o)
 .ARM.attributes
                0x00000444       0x19 c:/devkitPro2007/libnds/lib\libnds9.a(console.o)
 .ARM.attributes
                0x0000045d       0x19 c:/devkitPro2007/libnds/lib\libnds9.a(initSystem.o)
 .ARM.attributes
                0x00000476       0x19 c:/devkitPro2007/libnds/lib\libnds9.a(keys.o)
 .ARM.attributes
                0x0000048f       0x19 c:/devkitPro2007/libnds/lib\libnds9.a(video.o)
 .ARM.attributes
                0x000004a8       0x19 c:/devkitPro2007/libnds/lib\libnds9.a(card.o)
 .ARM.attributes
                0x000004c1       0x19 c:/devkitPro2007/libnds/lib\libnds9.a(interrupts.o)
 .ARM.attributes
                0x000004da       0x19 c:/devkitPro2007/libnds/lib\libnds9.a(biosCalls.o)
 .ARM.attributes
                0x000004f3       0x19 c:/devkitPro2007/libnds/lib\libnds9.a(interruptDispatcher.o)
 .ARM.attributes
                0x0000050c       0x10 c:/devkitPro2007/libnds/lib\libnds9.a(default_font.o)
 .ARM.attributes
                0x0000051c       0x1e c:/devkitpro2007/devkitarm/bin/../lib/gcc/arm-eabi/4.1.2\libgcc.a(_udivsi3.o)
 .ARM.attributes
                0x0000053a       0x1e c:/devkitpro2007/devkitarm/bin/../lib/gcc/arm-eabi/4.1.2\libgcc.a(_divsi3.o)
 .ARM.attributes
                0x00000558       0x1e c:/devkitpro2007/devkitarm/bin/../lib/gcc/arm-eabi/4.1.2\libgcc.a(_dvmd_tls.o)
 .ARM.attributes
                0x00000576       0x1c c:/devkitpro2007/devkitarm/bin/../lib/gcc/arm-eabi/4.1.2/../../../../arm-eabi/lib\libc.a(lib_a-ctype_.o)
 .ARM.attributes
                0x00000592       0x1e c:/devkitpro2007/devkitarm/bin/../lib/gcc/arm-eabi/4.1.2/../../../../arm-eabi/lib\libc.a(lib_a-fclose.o)
 .ARM.attributes
                0x000005b0       0x1e c:/devkitpro2007/devkitarm/bin/../lib/gcc/arm-eabi/4.1.2/../../../../arm-eabi/lib\libc.a(lib_a-fflush.o)
 .ARM.attributes
                0x000005ce       0x1e c:/devkitpro2007/devkitarm/bin/../lib/gcc/arm-eabi/4.1.2/../../../../arm-eabi/lib\libc.a(lib_a-findfp.o)
 .ARM.attributes
                0x000005ec       0x1e c:/devkitpro2007/devkitarm/bin/../lib/gcc/arm-eabi/4.1.2/../../../../arm-eabi/lib\libc.a(lib_a-fopen.o)
 .ARM.attributes
                0x0000060a       0x1e c:/devkitpro2007/devkitarm/bin/../lib/gcc/arm-eabi/4.1.2/../../../../arm-eabi/lib\libc.a(lib_a-fread.o)
 .ARM.attributes
                0x00000628       0x1e c:/devkitpro2007/devkitarm/bin/../lib/gcc/arm-eabi/4.1.2/../../../../arm-eabi/lib\libc.a(lib_a-freer.o)
 .ARM.attributes
                0x00000646       0x1e c:/devkitpro2007/devkitarm/bin/../lib/gcc/arm-eabi/4.1.2/../../../../arm-eabi/lib\libc.a(lib_a-fseek.o)
 .ARM.attributes
                0x00000664       0x1e c:/devkitpro2007/devkitarm/bin/../lib/gcc/arm-eabi/4.1.2/../../../../arm-eabi/lib\libc.a(lib_a-fwalk.o)
 .ARM.attributes
                0x00000682       0x1e c:/devkitpro2007/devkitarm/bin/../lib/gcc/arm-eabi/4.1.2/../../../../arm-eabi/lib\libc.a(lib_a-fwrite.o)
 .ARM.attributes
                0x000006a0       0x1c c:/devkitpro2007/devkitarm/bin/../lib/gcc/arm-eabi/4.1.2/../../../../arm-eabi/lib\libc.a(lib_a-impure.o)
 .ARM.attributes
                0x000006bc       0x1e c:/devkitpro2007/devkitarm/bin/../lib/gcc/arm-eabi/4.1.2/../../../../arm-eabi/lib\libc.a(lib_a-init.o)
 .ARM.attributes
                0x000006da       0x1e c:/devkitpro2007/devkitarm/bin/../lib/gcc/arm-eabi/4.1.2/../../../../arm-eabi/lib\libc.a(lib_a-iprintf.o)
 .ARM.attributes
                0x000006f8       0x1e c:/devkitpro2007/devkitarm/bin/../lib/gcc/arm-eabi/4.1.2/../../../../arm-eabi/lib\libc.a(lib_a-makebuf.o)
 .ARM.attributes
                0x00000716       0x1e c:/devkitpro2007/devkitarm/bin/../lib/gcc/arm-eabi/4.1.2/../../../../arm-eabi/lib\libc.a(lib_a-malloc.o)
 .ARM.attributes
                0x00000734       0x1e c:/devkitpro2007/devkitarm/bin/../lib/gcc/arm-eabi/4.1.2/../../../../arm-eabi/lib\libc.a(lib_a-mallocr.o)
 .ARM.attributes
                0x00000752       0x1e c:/devkitpro2007/devkitarm/bin/../lib/gcc/arm-eabi/4.1.2/../../../../arm-eabi/lib\libc.a(lib_a-memcpy.o)
 .ARM.attributes
                0x00000770       0x1e c:/devkitpro2007/devkitarm/bin/../lib/gcc/arm-eabi/4.1.2/../../../../arm-eabi/lib\libc.a(lib_a-memmove.o)
 .ARM.attributes
                0x0000078e       0x1e c:/devkitpro2007/devkitarm/bin/../lib/gcc/arm-eabi/4.1.2/../../../../arm-eabi/lib\libc.a(lib_a-memset.o)
 .ARM.attributes
                0x000007ac       0x1e c:/devkitpro2007/devkitarm/bin/../lib/gcc/arm-eabi/4.1.2/../../../../arm-eabi/lib\libc.a(lib_a-mlock.o)
 .ARM.attributes
                0x000007ca       0x1e c:/devkitpro2007/devkitarm/bin/../lib/gcc/arm-eabi/4.1.2/../../../../arm-eabi/lib\libc.a(lib_a-printf.o)
 .ARM.attributes
                0x000007e8       0x1e c:/devkitpro2007/devkitarm/bin/../lib/gcc/arm-eabi/4.1.2/../../../../arm-eabi/lib\libc.a(lib_a-refill.o)
 .ARM.attributes
                0x00000806       0x1e c:/devkitpro2007/devkitarm/bin/../lib/gcc/arm-eabi/4.1.2/../../../../arm-eabi/lib\libc.a(lib_a-setvbuf.o)
 .ARM.attributes
                0x00000824       0x1e c:/devkitpro2007/devkitarm/bin/../lib/gcc/arm-eabi/4.1.2/../../../../arm-eabi/lib\libc.a(lib_a-siscanf.o)
 .ARM.attributes
                0x00000842       0x1e c:/devkitpro2007/devkitarm/bin/../lib/gcc/arm-eabi/4.1.2/../../../../arm-eabi/lib\libc.a(lib_a-sprintf.o)
 .ARM.attributes
                0x00000860       0x1e c:/devkitpro2007/devkitarm/bin/../lib/gcc/arm-eabi/4.1.2/../../../../arm-eabi/lib\libc.a(lib_a-stdio.o)
 .ARM.attributes
                0x0000087e       0x1e c:/devkitpro2007/devkitarm/bin/../lib/gcc/arm-eabi/4.1.2/../../../../arm-eabi/lib\libc.a(lib_a-strcasecmp.o)
 .ARM.attributes
                0x0000089c       0x1e c:/devkitpro2007/devkitarm/bin/../lib/gcc/arm-eabi/4.1.2/../../../../arm-eabi/lib\libc.a(lib_a-strcat.o)
 .ARM.attributes
                0x000008ba       0x1e c:/devkitpro2007/devkitarm/bin/../lib/gcc/arm-eabi/4.1.2/../../../../arm-eabi/lib\libc.a(lib_a-strchr.o)
 .ARM.attributes
                0x000008d8       0x1e c:/devkitpro2007/devkitarm/bin/../lib/gcc/arm-eabi/4.1.2/../../../../arm-eabi/lib\libc.a(lib_a-strcmp.o)
 .ARM.attributes
                0x000008f6       0x1e c:/devkitpro2007/devkitarm/bin/../lib/gcc/arm-eabi/4.1.2/../../../../arm-eabi/lib\libc.a(lib_a-strcpy.o)
 .ARM.attributes
                0x00000914       0x1e c:/devkitpro2007/devkitarm/bin/../lib/gcc/arm-eabi/4.1.2/../../../../arm-eabi/lib\libc.a(lib_a-strlen.o)
 .ARM.attributes
                0x00000932       0x1e c:/devkitpro2007/devkitarm/bin/../lib/gcc/arm-eabi/4.1.2/../../../../arm-eabi/lib\libc.a(lib_a-strncasecmp.o)
 .ARM.attributes
                0x00000950       0x1e c:/devkitpro2007/devkitarm/bin/../lib/gcc/arm-eabi/4.1.2/../../../../arm-eabi/lib\libc.a(lib_a-strncmp.o)
 .ARM.attributes
                0x0000096e       0x1e c:/devkitpro2007/devkitarm/bin/../lib/gcc/arm-eabi/4.1.2/../../../../arm-eabi/lib\libc.a(lib_a-strncpy.o)
 .ARM.attributes
                0x0000098c       0x1e c:/devkitpro2007/devkitarm/bin/../lib/gcc/arm-eabi/4.1.2/../../../../arm-eabi/lib\libc.a(lib_a-strnlen.o)
 .ARM.attributes
                0x000009aa       0x1e c:/devkitpro2007/devkitarm/bin/../lib/gcc/arm-eabi/4.1.2/../../../../arm-eabi/lib\libc.a(lib_a-strpbrk.o)
 .ARM.attributes
                0x000009c8       0x1e c:/devkitpro2007/devkitarm/bin/../lib/gcc/arm-eabi/4.1.2/../../../../arm-eabi/lib\libc.a(lib_a-strrchr.o)
 .ARM.attributes
                0x000009e6       0x1e c:/devkitpro2007/devkitarm/bin/../lib/gcc/arm-eabi/4.1.2/../../../../arm-eabi/lib\libc.a(lib_a-strstr.o)
 .ARM.attributes
                0x00000a04       0x1e c:/devkitpro2007/devkitarm/bin/../lib/gcc/arm-eabi/4.1.2/../../../../arm-eabi/lib\libc.a(lib_a-strupr.o)
 .ARM.attributes
                0x00000a22       0x1e c:/devkitpro2007/devkitarm/bin/../lib/gcc/arm-eabi/4.1.2/../../../../arm-eabi/lib\libc.a(lib_a-sysstat.o)
 .ARM.attributes
                0x00000a40       0x1e c:/devkitpro2007/devkitarm/bin/../lib/gcc/arm-eabi/4.1.2/../../../../arm-eabi/lib\libc.a(lib_a-toupper.o)
 .ARM.attributes
                0x00000a5e       0x1e c:/devkitpro2007/devkitarm/bin/../lib/gcc/arm-eabi/4.1.2/../../../../arm-eabi/lib\libc.a(lib_a-vfiprintf.o)
 .ARM.attributes
                0x00000a7c       0x1e c:/devkitpro2007/devkitarm/bin/../lib/gcc/arm-eabi/4.1.2/../../../../arm-eabi/lib\libc.a(lib_a-vfiscanf.o)
 .ARM.attributes
                0x00000a9a       0x1e c:/devkitpro2007/devkitarm/bin/../lib/gcc/arm-eabi/4.1.2/../../../../arm-eabi/lib\libc.a(lib_a-vfprintf.o)
 .ARM.attributes
                0x00000ab8       0x1e c:/devkitpro2007/devkitarm/bin/../lib/gcc/arm-eabi/4.1.2/../../../../arm-eabi/lib\libc.a(lib_a-vsnprintf.o)
 .ARM.attributes
                0x00000ad6       0x1e c:/devkitpro2007/devkitarm/bin/../lib/gcc/arm-eabi/4.1.2/../../../../arm-eabi/lib\libc.a(lib_a-wcrtomb.o)
 .ARM.attributes
                0x00000af4       0x1e c:/devkitpro2007/devkitarm/bin/../lib/gcc/arm-eabi/4.1.2/../../../../arm-eabi/lib\libc.a(lib_a-wcsrtombs.o)
 .ARM.attributes
                0x00000b12       0x1e c:/devkitpro2007/devkitarm/bin/../lib/gcc/arm-eabi/4.1.2/../../../../arm-eabi/lib\libc.a(lib_a-wctomb_r.o)
 .ARM.attributes
                0x00000b30       0x1e c:/devkitpro2007/devkitarm/bin/../lib/gcc/arm-eabi/4.1.2/../../../../arm-eabi/lib\libc.a(lib_a-wsetup.o)
 .ARM.attributes
                0x00000b4e       0x1e c:/devkitpro2007/devkitarm/bin/../lib/gcc/arm-eabi/4.1.2/../../../../arm-eabi/lib\libc.a(lib_a-dtoa.o)
 .ARM.attributes
                0x00000b6c       0x1e c:/devkitpro2007/devkitarm/bin/../lib/gcc/arm-eabi/4.1.2/../../../../arm-eabi/lib\libc.a(lib_a-flags.o)
 .ARM.attributes
                0x00000b8a       0x1e c:/devkitpro2007/devkitarm/bin/../lib/gcc/arm-eabi/4.1.2/../../../../arm-eabi/lib\libc.a(lib_a-fvwrite.o)
 .ARM.attributes
                0x00000ba8       0x1e c:/devkitpro2007/devkitarm/bin/../lib/gcc/arm-eabi/4.1.2/../../../../arm-eabi/lib\libc.a(lib_a-iswspace.o)
 .ARM.attributes
                0x00000bc6       0x1e c:/devkitpro2007/devkitarm/bin/../lib/gcc/arm-eabi/4.1.2/../../../../arm-eabi/lib\libc.a(lib_a-locale.o)
 .ARM.attributes
                0x00000be4       0x1e c:/devkitpro2007/devkitarm/bin/../lib/gcc/arm-eabi/4.1.2/../../../../arm-eabi/lib\libc.a(lib_a-mbrtowc.o)
 .ARM.attributes
                0x00000c02       0x1e c:/devkitpro2007/devkitarm/bin/../lib/gcc/arm-eabi/4.1.2/../../../../arm-eabi/lib\libc.a(lib_a-mbtowc_r.o)
 .ARM.attributes
                0x00000c20       0x1e c:/devkitpro2007/devkitarm/bin/../lib/gcc/arm-eabi/4.1.2/../../../../arm-eabi/lib\libc.a(lib_a-memchr.o)
 .ARM.attributes
                0x00000c3e       0x1e c:/devkitpro2007/devkitarm/bin/../lib/gcc/arm-eabi/4.1.2/../../../../arm-eabi/lib\libc.a(lib_a-mprec.o)
 .ARM.attributes
                0x00000c5c       0x1e c:/devkitpro2007/devkitarm/bin/../lib/gcc/arm-eabi/4.1.2/../../../../arm-eabi/lib\libc.a(lib_a-reallocr.o)
 .ARM.attributes
                0x00000c7a       0x1e c:/devkitpro2007/devkitarm/bin/../lib/gcc/arm-eabi/4.1.2/../../../../arm-eabi/lib\libc.a(lib_a-s_isinfd.o)
 .ARM.attributes
                0x00000c98       0x1e c:/devkitpro2007/devkitarm/bin/../lib/gcc/arm-eabi/4.1.2/../../../../arm-eabi/lib\libc.a(lib_a-s_isnand.o)
 .ARM.attributes
                0x00000cb6       0x1e c:/devkitpro2007/devkitarm/bin/../lib/gcc/arm-eabi/4.1.2/../../../../arm-eabi/lib\libc.a(lib_a-sccl.o)
 .ARM.attributes
                0x00000cd4       0x1e c:/devkitpro2007/devkitarm/bin/../lib/gcc/arm-eabi/4.1.2/../../../../arm-eabi/lib\libc.a(lib_a-strtol.o)
 .ARM.attributes
                0x00000cf2       0x1e c:/devkitpro2007/devkitarm/bin/../lib/gcc/arm-eabi/4.1.2/../../../../arm-eabi/lib\libc.a(lib_a-strtoul.o)
 .ARM.attributes
                0x00000d10       0x1e c:/devkitpro2007/devkitarm/bin/../lib/gcc/arm-eabi/4.1.2/../../../../arm-eabi/lib\libc.a(lib_a-ungetc.o)
 .ARM.attributes
                0x00000d2e       0x1e c:/devkitpro2007/devkitarm/bin/../lib/gcc/arm-eabi/4.1.2/../../../../arm-eabi/lib\libc.a(lib_a-callocr.o)
 .ARM.attributes
                0x00000d4c       0x1e c:/devkitpro2007/devkitarm/bin/../lib/gcc/arm-eabi/4.1.2\libgcc.a(_addsubdf3.o)
 .ARM.attributes
                0x00000d6a       0x1e c:/devkitpro2007/devkitarm/bin/../lib/gcc/arm-eabi/4.1.2\libgcc.a(_muldivdf3.o)
 .ARM.attributes
                0x00000d88       0x1e c:/devkitpro2007/devkitarm/bin/../lib/gcc/arm-eabi/4.1.2\libgcc.a(_cmpdf2.o)
 .ARM.attributes
                0x00000da6       0x1e c:/devkitpro2007/devkitarm/bin/../lib/gcc/arm-eabi/4.1.2\libgcc.a(_fixdfsi.o)
 .ARM.attributes
                0x00000dc4       0x1e c:/devkitpro2007/devkitarm/bin/../lib/gcc/arm-eabi/4.1.2/../../../../arm-eabi/lib\libsysbase.a(iosupport.o)
 .ARM.attributes
                0x00000de2       0x1e c:/devkitpro2007/devkitarm/bin/../lib/gcc/arm-eabi/4.1.2/../../../../arm-eabi/lib\libsysbase.a(close.o)
 .ARM.attributes
                0x00000e00       0x1e c:/devkitpro2007/devkitarm/bin/../lib/gcc/arm-eabi/4.1.2/../../../../arm-eabi/lib\libsysbase.a(fstat.o)
 .ARM.attributes
                0x00000e1e       0x1e c:/devkitpro2007/devkitarm/bin/../lib/gcc/arm-eabi/4.1.2/../../../../arm-eabi/lib\libsysbase.a(isatty.o)
 .ARM.attributes
                0x00000e3c       0x1e c:/devkitpro2007/devkitarm/bin/../lib/gcc/arm-eabi/4.1.2/../../../../arm-eabi/lib\libsysbase.a(lseek.o)
 .ARM.attributes
                0x00000e5a       0x1e c:/devkitpro2007/devkitarm/bin/../lib/gcc/arm-eabi/4.1.2/../../../../arm-eabi/lib\libsysbase.a(open.o)
 .ARM.attributes
                0x00000e78       0x1e c:/devkitpro2007/devkitarm/bin/../lib/gcc/arm-eabi/4.1.2/../../../../arm-eabi/lib\libsysbase.a(read.o)
 .ARM.attributes
                0x00000e96       0x1e c:/devkitpro2007/devkitarm/bin/../lib/gcc/arm-eabi/4.1.2/../../../../arm-eabi/lib\libsysbase.a(sbrk.o)
 .ARM.attributes
                0x00000eb4       0x1e c:/devkitpro2007/devkitarm/bin/../lib/gcc/arm-eabi/4.1.2/../../../../arm-eabi/lib\libsysbase.a(stat.o)
 .ARM.attributes
                0x00000ed2       0x1e c:/devkitpro2007/devkitarm/bin/../lib/gcc/arm-eabi/4.1.2/../../../../arm-eabi/lib\libsysbase.a(times.o)
 .ARM.attributes
                0x00000ef0       0x1e c:/devkitpro2007/devkitarm/bin/../lib/gcc/arm-eabi/4.1.2/../../../../arm-eabi/lib\libsysbase.a(write.o)
 .ARM.attributes
                0x00000f0e       0x1c c:/devkitpro2007/devkitarm/bin/../lib/gcc/arm-eabi/4.1.2/../../../../arm-eabi/lib\libsysbase.a(malloc_vars.o)
 .ARM.attributes
                0x00000f2a       0x1e c:/devkitpro2007/devkitarm/bin/../lib/gcc/arm-eabi/4.1.2/../../../../arm-eabi/lib\libsysbase.a(chdir.o)
 .ARM.attributes
                0x00000f48       0x1e c:/devkitpro2007/devkitarm/bin/../lib/gcc/arm-eabi/4.1.2/../../../../arm-eabi/lib\libsysbase.a(dir.o)
 .ARM.attributes
                0x00000f66       0x1e c:/devkitpro2007/devkitarm/bin/../lib/gcc/arm-eabi/4.1.2/../../../../arm-eabi/lib\libsysbase.a(build_argv.o)
 .ARM.attributes
                0x00000f84       0x1e c:/devkitpro2007/devkitarm/bin/../lib/gcc/arm-eabi/4.1.2/../../../../arm-eabi/lib\libc.a(lib_a-errno.o)
 .ARM.attributes
                0x00000fa2       0x1c c:/devkitpro2007/devkitarm/bin/../lib/gcc/arm-eabi/4.1.2/crtend.o
 .ARM.attributes
                0x00000fbe       0x1e c:/devkitpro2007/devkitarm/bin/../lib/gcc/arm-eabi/4.1.2/crtn.o

.debug_ranges   0x00000000      0xb48
 .debug_ranges  0x00000000       0x30 c:/devkitPro2007/libnds/lib\libfat.a(partition.o)
 .debug_ranges  0x00000030       0x30 c:/devkitPro2007/libnds/lib\libfat.a(io_m3sd.o)
 .debug_ranges  0x00000060      0x258 c:/devkitPro2007/libnds/lib\libfat.a(io_njsd.o)
 .debug_ranges  0x000002b8      0x268 c:/devkitPro2007/libnds/lib\libfat.a(io_nmmc.o)
 .debug_ranges  0x00000520       0x30 c:/devkitPro2007/libnds/lib\libfat.a(io_scsd.o)
 .debug_ranges  0x00000550       0x30 c:/devkitPro2007/libnds/lib\libfat.a(cache.o)
 .debug_ranges  0x00000580       0xb0 c:/devkitPro2007/libnds/lib\libfat.a(fatdir.o)
 .debug_ranges  0x00000630      0x298 c:/devkitPro2007/libnds/lib\libfat.a(fatfile.o)
 .debug_ranges  0x000008c8       0x18 c:/devkitPro2007/libnds/lib\libfat.a(file_allocation_table.o)
 .debug_ranges  0x000008e0      0x148 c:/devkitPro2007/libnds/lib\libfat.a(directory.o)
 .debug_ranges  0x00000a28       0x88 c:/devkitPro2007/libnds/lib\libnds9.a(console.o)
 .debug_ranges  0x00000ab0       0x30 c:/devkitPro2007/libnds/lib\libnds9.a(initSystem.o)
 .debug_ranges  0x00000ae0       0x68 c:/devkitPro2007/libnds/lib\libnds9.a(card.o)
